	.file	"47_count_equal_items.cpp"
	.text
	.section	.text._ZSt23__is_constant_evaluatedv,"axG",@progbits,_ZSt23__is_constant_evaluatedv,comdat
	.weak	_ZSt23__is_constant_evaluatedv
	.type	_ZSt23__is_constant_evaluatedv, @function
_ZSt23__is_constant_evaluatedv:
.LFB1:
	.cfi_startproc
	endbr64
	pushq	%rbp
	.cfi_def_cfa_offset 16
	.cfi_offset 6, -16
	movq	%rsp, %rbp
	.cfi_def_cfa_register 6
	movl	$0, %eax
	popq	%rbp
	.cfi_def_cfa 7, 8
	ret
	.cfi_endproc
.LFE1:
	.size	_ZSt23__is_constant_evaluatedv, .-_ZSt23__is_constant_evaluatedv
	.section	.text._ZnwmPv,"axG",@progbits,_ZnwmPv,comdat
	.weak	_ZnwmPv
	.type	_ZnwmPv, @function
_ZnwmPv:
.LFB39:
	.cfi_startproc
	endbr64
	pushq	%rbp
	.cfi_def_cfa_offset 16
	.cfi_offset 6, -16
	movq	%rsp, %rbp
	.cfi_def_cfa_register 6
	movq	%rdi, -8(%rbp)
	movq	%rsi, -16(%rbp)
	movq	-16(%rbp), %rax
	popq	%rbp
	.cfi_def_cfa 7, 8
	ret
	.cfi_endproc
.LFE39:
	.size	_ZnwmPv, .-_ZnwmPv
	.section	.text._ZSt21is_constant_evaluatedv,"axG",@progbits,_ZSt21is_constant_evaluatedv,comdat
	.weak	_ZSt21is_constant_evaluatedv
	.type	_ZSt21is_constant_evaluatedv, @function
_ZSt21is_constant_evaluatedv:
.LFB56:
	.cfi_startproc
	endbr64
	pushq	%rbp
	.cfi_def_cfa_offset 16
	.cfi_offset 6, -16
	movq	%rsp, %rbp
	.cfi_def_cfa_register 6
	movl	$0, %eax
	popq	%rbp
	.cfi_def_cfa 7, 8
	ret
	.cfi_endproc
.LFE56:
	.size	_ZSt21is_constant_evaluatedv, .-_ZSt21is_constant_evaluatedv
#APP
	.globl _ZSt21ios_base_library_initv
#NO_APP
	.section	.text._ZNSt6vectorIfSaIfEEC1ESt16initializer_listIfERKS0_,"axG",@progbits,_ZNSt6vectorIfSaIfEEC1ESt16initializer_listIfERKS0_,comdat
	.align 2
	.weak	_ZNSt6vectorIfSaIfEEC1ESt16initializer_listIfERKS0_
	.type	_ZNSt6vectorIfSaIfEEC1ESt16initializer_listIfERKS0_, @function
_ZNSt6vectorIfSaIfEEC1ESt16initializer_listIfERKS0_:
.LFB2846:
	.cfi_startproc
	.cfi_personality 0x9b,DW.ref.__gxx_personality_v0
	.cfi_lsda 0x1b,.LLSDA2846
	endbr64
	pushq	%rbp
	.cfi_def_cfa_offset 16
	.cfi_offset 6, -16
	movq	%rsp, %rbp
	.cfi_def_cfa_register 6
	pushq	%rbx
	subq	$56, %rsp
	.cfi_offset 3, -24
	movq	%rdi, -40(%rbp)
	movq	%rsi, %rax
	movq	%rdx, %rsi
	movq	%rsi, %rdx
	movq	%rax, -64(%rbp)
	movq	%rdx, -56(%rbp)
	movq	%rcx, -48(%rbp)
	movq	%fs:40, %rax
	movq	%rax, -24(%rbp)
	xorl	%eax, %eax
	movq	-40(%rbp), %rax
	movq	-48(%rbp), %rdx
	movq	%rdx, %rsi
	movq	%rax, %rdi
	call	_ZNSt12_Vector_baseIfSaIfEEC2ERKS0_
	leaq	-64(%rbp), %rax
	movq	%rax, %rdi
	call	_ZNKSt16initializer_listIfE3endEv
	movq	%rax, %rbx
	leaq	-64(%rbp), %rax
	movq	%rax, %rdi
	call	_ZNKSt16initializer_listIfE5beginEv
	movq	%rax, %rcx
	movq	-40(%rbp), %rax
	movq	%rbx, %rdx
	movq	%rcx, %rsi
	movq	%rax, %rdi
.LEHB0:
	call	_ZNSt6vectorIfSaIfEE19_M_range_initializeIPKfEEvT_S5_St20forward_iterator_tag
.LEHE0:
	jmp	.L12
.L11:
	endbr64
	movq	%rax, %rbx
	movq	-40(%rbp), %rax
	movq	%rax, %rdi
	call	_ZNSt12_Vector_baseIfSaIfEED2Ev
	movq	%rbx, %rax
	movq	-24(%rbp), %rdx
	subq	%fs:40, %rdx
	je	.L9
	call	__stack_chk_fail@PLT
.L9:
	movq	%rax, %rdi
.LEHB1:
	call	_Unwind_Resume@PLT
.LEHE1:
.L12:
	movq	-24(%rbp), %rax
	subq	%fs:40, %rax
	je	.L10
	call	__stack_chk_fail@PLT
.L10:
	movq	-8(%rbp), %rbx
	leave
	.cfi_def_cfa 7, 8
	ret
	.cfi_endproc
.LFE2846:
	.globl	__gxx_personality_v0
	.section	.gcc_except_table._ZNSt6vectorIfSaIfEEC1ESt16initializer_listIfERKS0_,"aG",@progbits,_ZNSt6vectorIfSaIfEEC1ESt16initializer_listIfERKS0_,comdat
.LLSDA2846:
	.byte	0xff
	.byte	0xff
	.byte	0x1
	.uleb128 .LLSDACSE2846-.LLSDACSB2846
.LLSDACSB2846:
	.uleb128 .LEHB0-.LFB2846
	.uleb128 .LEHE0-.LEHB0
	.uleb128 .L11-.LFB2846
	.uleb128 0
	.uleb128 .LEHB1-.LFB2846
	.uleb128 .LEHE1-.LEHB1
	.uleb128 0
	.uleb128 0
.LLSDACSE2846:
	.section	.text._ZNSt6vectorIfSaIfEEC1ESt16initializer_listIfERKS0_,"axG",@progbits,_ZNSt6vectorIfSaIfEEC1ESt16initializer_listIfERKS0_,comdat
	.size	_ZNSt6vectorIfSaIfEEC1ESt16initializer_listIfERKS0_, .-_ZNSt6vectorIfSaIfEEC1ESt16initializer_listIfERKS0_
	.section	.text._ZNSt12_Vector_baseIfSaIfEE12_Vector_implD2Ev,"axG",@progbits,_ZNSt12_Vector_baseIfSaIfEE12_Vector_implD5Ev,comdat
	.align 2
	.weak	_ZNSt12_Vector_baseIfSaIfEE12_Vector_implD2Ev
	.type	_ZNSt12_Vector_baseIfSaIfEE12_Vector_implD2Ev, @function
_ZNSt12_Vector_baseIfSaIfEE12_Vector_implD2Ev:
.LFB2849:
	.cfi_startproc
	endbr64
	pushq	%rbp
	.cfi_def_cfa_offset 16
	.cfi_offset 6, -16
	movq	%rsp, %rbp
	.cfi_def_cfa_register 6
	movq	%rdi, -24(%rbp)
	movq	-24(%rbp), %rax
	movq	%rax, -8(%rbp)
	nop
	nop
	popq	%rbp
	.cfi_def_cfa 7, 8
	ret
	.cfi_endproc
.LFE2849:
	.size	_ZNSt12_Vector_baseIfSaIfEE12_Vector_implD2Ev, .-_ZNSt12_Vector_baseIfSaIfEE12_Vector_implD2Ev
	.weak	_ZNSt12_Vector_baseIfSaIfEE12_Vector_implD1Ev
	.set	_ZNSt12_Vector_baseIfSaIfEE12_Vector_implD1Ev,_ZNSt12_Vector_baseIfSaIfEE12_Vector_implD2Ev
	.section	.text._ZNSt12_Vector_baseIfSaIfEEC2ERKS0_,"axG",@progbits,_ZNSt12_Vector_baseIfSaIfEEC2ERKS0_,comdat
	.align 2
	.weak	_ZNSt12_Vector_baseIfSaIfEEC2ERKS0_
	.type	_ZNSt12_Vector_baseIfSaIfEEC2ERKS0_, @function
_ZNSt12_Vector_baseIfSaIfEEC2ERKS0_:
.LFB2851:
	.cfi_startproc
	endbr64
	pushq	%rbp
	.cfi_def_cfa_offset 16
	.cfi_offset 6, -16
	movq	%rsp, %rbp
	.cfi_def_cfa_register 6
	subq	$16, %rsp
	movq	%rdi, -8(%rbp)
	movq	%rsi, -16(%rbp)
	movq	-8(%rbp), %rax
	movq	-16(%rbp), %rdx
	movq	%rdx, %rsi
	movq	%rax, %rdi
	call	_ZNSt12_Vector_baseIfSaIfEE12_Vector_implC1ERKS0_
	nop
	leave
	.cfi_def_cfa 7, 8
	ret
	.cfi_endproc
.LFE2851:
	.size	_ZNSt12_Vector_baseIfSaIfEEC2ERKS0_, .-_ZNSt12_Vector_baseIfSaIfEEC2ERKS0_
	.section	.text._ZNSt12_Vector_baseIfSaIfEE12_Vector_implC1ERKS0_,"axG",@progbits,_ZNSt12_Vector_baseIfSaIfEE12_Vector_implC1ERKS0_,comdat
	.align 2
	.weak	_ZNSt12_Vector_baseIfSaIfEE12_Vector_implC1ERKS0_
	.type	_ZNSt12_Vector_baseIfSaIfEE12_Vector_implC1ERKS0_, @function
_ZNSt12_Vector_baseIfSaIfEE12_Vector_implC1ERKS0_:
.LFB2855:
	.cfi_startproc
	endbr64
	pushq	%rbp
	.cfi_def_cfa_offset 16
	.cfi_offset 6, -16
	movq	%rsp, %rbp
	.cfi_def_cfa_register 6
	subq	$48, %rsp
	movq	%rdi, -40(%rbp)
	movq	%rsi, -48(%rbp)
	movq	-40(%rbp), %rax
	movq	%rax, -32(%rbp)
	movq	-48(%rbp), %rax
	movq	%rax, -24(%rbp)
	movq	-32(%rbp), %rax
	movq	%rax, -16(%rbp)
	movq	-24(%rbp), %rax
	movq	%rax, -8(%rbp)
	nop
	nop
	movq	-40(%rbp), %rax
	movq	%rax, %rdi
	call	_ZNSt12_Vector_baseIfSaIfEE17_Vector_impl_dataC2Ev
	nop
	leave
	.cfi_def_cfa 7, 8
	ret
	.cfi_endproc
.LFE2855:
	.size	_ZNSt12_Vector_baseIfSaIfEE12_Vector_implC1ERKS0_, .-_ZNSt12_Vector_baseIfSaIfEE12_Vector_implC1ERKS0_
	.section	.text._ZNSt12_Vector_baseIfSaIfEE17_Vector_impl_dataC2Ev,"axG",@progbits,_ZNSt12_Vector_baseIfSaIfEE17_Vector_impl_dataC2Ev,comdat
	.align 2
	.weak	_ZNSt12_Vector_baseIfSaIfEE17_Vector_impl_dataC2Ev
	.type	_ZNSt12_Vector_baseIfSaIfEE17_Vector_impl_dataC2Ev, @function
_ZNSt12_Vector_baseIfSaIfEE17_Vector_impl_dataC2Ev:
.LFB2863:
	.cfi_startproc
	endbr64
	pushq	%rbp
	.cfi_def_cfa_offset 16
	.cfi_offset 6, -16
	movq	%rsp, %rbp
	.cfi_def_cfa_register 6
	movq	%rdi, -8(%rbp)
	movq	-8(%rbp), %rax
	movq	$0, (%rax)
	movq	-8(%rbp), %rax
	movq	$0, 8(%rax)
	movq	-8(%rbp), %rax
	movq	$0, 16(%rax)
	nop
	popq	%rbp
	.cfi_def_cfa 7, 8
	ret
	.cfi_endproc
.LFE2863:
	.size	_ZNSt12_Vector_baseIfSaIfEE17_Vector_impl_dataC2Ev, .-_ZNSt12_Vector_baseIfSaIfEE17_Vector_impl_dataC2Ev
	.section	.text._ZNKSt16initializer_listIfE5beginEv,"axG",@progbits,_ZNKSt16initializer_listIfE5beginEv,comdat
	.align 2
	.weak	_ZNKSt16initializer_listIfE5beginEv
	.type	_ZNKSt16initializer_listIfE5beginEv, @function
_ZNKSt16initializer_listIfE5beginEv:
.LFB2865:
	.cfi_startproc
	endbr64
	pushq	%rbp
	.cfi_def_cfa_offset 16
	.cfi_offset 6, -16
	movq	%rsp, %rbp
	.cfi_def_cfa_register 6
	movq	%rdi, -8(%rbp)
	movq	-8(%rbp), %rax
	movq	(%rax), %rax
	popq	%rbp
	.cfi_def_cfa 7, 8
	ret
	.cfi_endproc
.LFE2865:
	.size	_ZNKSt16initializer_listIfE5beginEv, .-_ZNKSt16initializer_listIfE5beginEv
	.section	.text._ZNKSt16initializer_listIfE3endEv,"axG",@progbits,_ZNKSt16initializer_listIfE3endEv,comdat
	.align 2
	.weak	_ZNKSt16initializer_listIfE3endEv
	.type	_ZNKSt16initializer_listIfE3endEv, @function
_ZNKSt16initializer_listIfE3endEv:
.LFB2866:
	.cfi_startproc
	endbr64
	pushq	%rbp
	.cfi_def_cfa_offset 16
	.cfi_offset 6, -16
	movq	%rsp, %rbp
	.cfi_def_cfa_register 6
	pushq	%rbx
	subq	$24, %rsp
	.cfi_offset 3, -24
	movq	%rdi, -24(%rbp)
	movq	-24(%rbp), %rax
	movq	%rax, %rdi
	call	_ZNKSt16initializer_listIfE5beginEv
	movq	%rax, %rbx
	movq	-24(%rbp), %rax
	movq	%rax, %rdi
	call	_ZNKSt16initializer_listIfE4sizeEv
	salq	$2, %rax
	addq	%rbx, %rax
	movq	-8(%rbp), %rbx
	leave
	.cfi_def_cfa 7, 8
	ret
	.cfi_endproc
.LFE2866:
	.size	_ZNKSt16initializer_listIfE3endEv, .-_ZNKSt16initializer_listIfE3endEv
	.section	.text._ZNKSt16initializer_listIfE4sizeEv,"axG",@progbits,_ZNKSt16initializer_listIfE4sizeEv,comdat
	.align 2
	.weak	_ZNKSt16initializer_listIfE4sizeEv
	.type	_ZNKSt16initializer_listIfE4sizeEv, @function
_ZNKSt16initializer_listIfE4sizeEv:
.LFB2867:
	.cfi_startproc
	endbr64
	pushq	%rbp
	.cfi_def_cfa_offset 16
	.cfi_offset 6, -16
	movq	%rsp, %rbp
	.cfi_def_cfa_register 6
	movq	%rdi, -8(%rbp)
	movq	-8(%rbp), %rax
	movq	8(%rax), %rax
	popq	%rbp
	.cfi_def_cfa 7, 8
	ret
	.cfi_endproc
.LFE2867:
	.size	_ZNKSt16initializer_listIfE4sizeEv, .-_ZNKSt16initializer_listIfE4sizeEv
	.section	.text._ZNSt6vectorIfSaIfEE19_M_range_initializeIPKfEEvT_S5_St20forward_iterator_tag,"axG",@progbits,_ZNSt6vectorIfSaIfEE19_M_range_initializeIPKfEEvT_S5_St20forward_iterator_tag,comdat
	.align 2
	.weak	_ZNSt6vectorIfSaIfEE19_M_range_initializeIPKfEEvT_S5_St20forward_iterator_tag
	.type	_ZNSt6vectorIfSaIfEE19_M_range_initializeIPKfEEvT_S5_St20forward_iterator_tag, @function
_ZNSt6vectorIfSaIfEE19_M_range_initializeIPKfEEvT_S5_St20forward_iterator_tag:
.LFB2868:
	.cfi_startproc
	endbr64
	pushq	%rbp
	.cfi_def_cfa_offset 16
	.cfi_offset 6, -16
	movq	%rsp, %rbp
	.cfi_def_cfa_register 6
	pushq	%rbx
	subq	$88, %rsp
	.cfi_offset 3, -24
	movq	%rdi, -72(%rbp)
	movq	%rsi, -80(%rbp)
	movq	%rdx, -88(%rbp)
	movq	%fs:40, %rax
	movq	%rax, -24(%rbp)
	xorl	%eax, %eax
	movq	-80(%rbp), %rax
	movq	%rax, -64(%rbp)
	movq	-88(%rbp), %rax
	movq	%rax, -48(%rbp)
	nop
	movq	-64(%rbp), %rax
	movq	%rax, -40(%rbp)
	movq	-48(%rbp), %rax
	movq	%rax, -32(%rbp)
	movq	-32(%rbp), %rax
	subq	-40(%rbp), %rax
	sarq	$2, %rax
	nop
	movq	%rax, -56(%rbp)
	movq	-72(%rbp), %rbx
	movq	-72(%rbp), %rax
	movq	%rax, %rdi
	call	_ZNSt12_Vector_baseIfSaIfEE19_M_get_Tp_allocatorEv
	movq	%rax, %rdx
	movq	-56(%rbp), %rax
	movq	%rdx, %rsi
	movq	%rax, %rdi
	call	_ZNSt6vectorIfSaIfEE17_S_check_init_lenEmRKS0_
	movq	%rax, %rsi
	movq	%rbx, %rdi
	call	_ZNSt12_Vector_baseIfSaIfEE11_M_allocateEm
	movq	-72(%rbp), %rdx
	movq	%rax, (%rdx)
	movq	-72(%rbp), %rax
	movq	(%rax), %rax
	movq	-56(%rbp), %rdx
	salq	$2, %rdx
	addq	%rax, %rdx
	movq	-72(%rbp), %rax
	movq	%rdx, 16(%rax)
	movq	-72(%rbp), %rax
	movq	%rax, %rdi
	call	_ZNSt12_Vector_baseIfSaIfEE19_M_get_Tp_allocatorEv
	movq	%rax, %rcx
	movq	-72(%rbp), %rax
	movq	(%rax), %rdx
	movq	-88(%rbp), %rsi
	movq	-80(%rbp), %rax
	movq	%rax, %rdi
	call	_ZSt22__uninitialized_copy_aIPKfPffET0_T_S4_S3_RSaIT1_E
	movq	-72(%rbp), %rdx
	movq	%rax, 8(%rdx)
	nop
	movq	-24(%rbp), %rax
	subq	%fs:40, %rax
	je	.L27
	call	__stack_chk_fail@PLT
.L27:
	movq	-8(%rbp), %rbx
	leave
	.cfi_def_cfa 7, 8
	ret
	.cfi_endproc
.LFE2868:
	.size	_ZNSt6vectorIfSaIfEE19_M_range_initializeIPKfEEvT_S5_St20forward_iterator_tag, .-_ZNSt6vectorIfSaIfEE19_M_range_initializeIPKfEEvT_S5_St20forward_iterator_tag
	.section	.text._ZNSt12_Vector_baseIfSaIfEE19_M_get_Tp_allocatorEv,"axG",@progbits,_ZNSt12_Vector_baseIfSaIfEE19_M_get_Tp_allocatorEv,comdat
	.align 2
	.weak	_ZNSt12_Vector_baseIfSaIfEE19_M_get_Tp_allocatorEv
	.type	_ZNSt12_Vector_baseIfSaIfEE19_M_get_Tp_allocatorEv, @function
_ZNSt12_Vector_baseIfSaIfEE19_M_get_Tp_allocatorEv:
.LFB2872:
	.cfi_startproc
	endbr64
	pushq	%rbp
	.cfi_def_cfa_offset 16
	.cfi_offset 6, -16
	movq	%rsp, %rbp
	.cfi_def_cfa_register 6
	movq	%rdi, -8(%rbp)
	movq	-8(%rbp), %rax
	popq	%rbp
	.cfi_def_cfa 7, 8
	ret
	.cfi_endproc
.LFE2872:
	.size	_ZNSt12_Vector_baseIfSaIfEE19_M_get_Tp_allocatorEv, .-_ZNSt12_Vector_baseIfSaIfEE19_M_get_Tp_allocatorEv
	.section	.rodata
	.align 8
.LC0:
	.string	"cannot create std::vector larger than max_size()"
	.section	.text._ZNSt6vectorIfSaIfEE17_S_check_init_lenEmRKS0_,"axG",@progbits,_ZNSt6vectorIfSaIfEE17_S_check_init_lenEmRKS0_,comdat
	.weak	_ZNSt6vectorIfSaIfEE17_S_check_init_lenEmRKS0_
	.type	_ZNSt6vectorIfSaIfEE17_S_check_init_lenEmRKS0_, @function
_ZNSt6vectorIfSaIfEE17_S_check_init_lenEmRKS0_:
.LFB2873:
	.cfi_startproc
	endbr64
	pushq	%rbp
	.cfi_def_cfa_offset 16
	.cfi_offset 6, -16
	movq	%rsp, %rbp
	.cfi_def_cfa_register 6
	subq	$64, %rsp
	movq	%rdi, -56(%rbp)
	movq	%rsi, -64(%rbp)
	movq	%fs:40, %rax
	movq	%rax, -8(%rbp)
	xorl	%eax, %eax
	movq	-64(%rbp), %rax
	movq	%rax, -32(%rbp)
	leaq	-33(%rbp), %rax
	movq	%rax, -24(%rbp)
	movq	-32(%rbp), %rax
	movq	%rax, -16(%rbp)
	nop
	nop
	leaq	-33(%rbp), %rax
	movq	%rax, %rdi
	call	_ZNSt6vectorIfSaIfEE11_S_max_sizeERKS0_
	cmpq	-56(%rbp), %rax
	setb	%al
	nop
	testb	%al, %al
	je	.L31
	movq	-8(%rbp), %rax
	subq	%fs:40, %rax
	je	.L32
	call	__stack_chk_fail@PLT
.L32:
	leaq	.LC0(%rip), %rax
	movq	%rax, %rdi
	call	_ZSt20__throw_length_errorPKc@PLT
.L31:
	movq	-56(%rbp), %rax
	movq	-8(%rbp), %rdx
	subq	%fs:40, %rdx
	je	.L34
	call	__stack_chk_fail@PLT
.L34:
	leave
	.cfi_def_cfa 7, 8
	ret
	.cfi_endproc
.LFE2873:
	.size	_ZNSt6vectorIfSaIfEE17_S_check_init_lenEmRKS0_, .-_ZNSt6vectorIfSaIfEE17_S_check_init_lenEmRKS0_
	.section	.text._ZNSt6vectorIfSaIfEE11_S_max_sizeERKS0_,"axG",@progbits,_ZNSt6vectorIfSaIfEE11_S_max_sizeERKS0_,comdat
	.weak	_ZNSt6vectorIfSaIfEE11_S_max_sizeERKS0_
	.type	_ZNSt6vectorIfSaIfEE11_S_max_sizeERKS0_, @function
_ZNSt6vectorIfSaIfEE11_S_max_sizeERKS0_:
.LFB2874:
	.cfi_startproc
	endbr64
	pushq	%rbp
	.cfi_def_cfa_offset 16
	.cfi_offset 6, -16
	movq	%rsp, %rbp
	.cfi_def_cfa_register 6
	subq	$48, %rsp
	movq	%rdi, -40(%rbp)
	movq	%fs:40, %rax
	movq	%rax, -8(%rbp)
	xorl	%eax, %eax
	movabsq	$2305843009213693951, %rax
	movq	%rax, -32(%rbp)
	movq	-40(%rbp), %rax
	movq	%rax, -16(%rbp)
	movabsq	$4611686018427387903, %rax
	movq	%rax, -24(%rbp)
	leaq	-24(%rbp), %rdx
	leaq	-32(%rbp), %rax
	movq	%rdx, %rsi
	movq	%rax, %rdi
	call	_ZSt3minImERKT_S2_S2_
	movq	(%rax), %rax
	movq	-8(%rbp), %rdx
	subq	%fs:40, %rdx
	je	.L38
	call	__stack_chk_fail@PLT
.L38:
	leave
	.cfi_def_cfa 7, 8
	ret
	.cfi_endproc
.LFE2874:
	.size	_ZNSt6vectorIfSaIfEE11_S_max_sizeERKS0_, .-_ZNSt6vectorIfSaIfEE11_S_max_sizeERKS0_
	.section	.text._ZSt3minImERKT_S2_S2_,"axG",@progbits,_ZSt3minImERKT_S2_S2_,comdat
	.weak	_ZSt3minImERKT_S2_S2_
	.type	_ZSt3minImERKT_S2_S2_, @function
_ZSt3minImERKT_S2_S2_:
.LFB2876:
	.cfi_startproc
	endbr64
	pushq	%rbp
	.cfi_def_cfa_offset 16
	.cfi_offset 6, -16
	movq	%rsp, %rbp
	.cfi_def_cfa_register 6
	movq	%rdi, -8(%rbp)
	movq	%rsi, -16(%rbp)
	movq	-16(%rbp), %rax
	movq	(%rax), %rdx
	movq	-8(%rbp), %rax
	movq	(%rax), %rax
	cmpq	%rax, %rdx
	jnb	.L40
	movq	-16(%rbp), %rax
	jmp	.L41
.L40:
	movq	-8(%rbp), %rax
.L41:
	popq	%rbp
	.cfi_def_cfa 7, 8
	ret
	.cfi_endproc
.LFE2876:
	.size	_ZSt3minImERKT_S2_S2_, .-_ZSt3minImERKT_S2_S2_
	.section	.text._ZNSt12_Vector_baseIfSaIfEE11_M_allocateEm,"axG",@progbits,_ZNSt12_Vector_baseIfSaIfEE11_M_allocateEm,comdat
	.align 2
	.weak	_ZNSt12_Vector_baseIfSaIfEE11_M_allocateEm
	.type	_ZNSt12_Vector_baseIfSaIfEE11_M_allocateEm, @function
_ZNSt12_Vector_baseIfSaIfEE11_M_allocateEm:
.LFB2880:
	.cfi_startproc
	endbr64
	pushq	%rbp
	.cfi_def_cfa_offset 16
	.cfi_offset 6, -16
	movq	%rsp, %rbp
	.cfi_def_cfa_register 6
	subq	$64, %rsp
	movq	%rdi, -56(%rbp)
	movq	%rsi, -64(%rbp)
	movq	%fs:40, %rax
	movq	%rax, -8(%rbp)
	xorl	%eax, %eax
	cmpq	$0, -64(%rbp)
	je	.L43
	movq	-56(%rbp), %rax
	movq	%rax, -32(%rbp)
	movq	-64(%rbp), %rax
	movq	%rax, -24(%rbp)
	movq	-32(%rbp), %rax
	movq	%rax, -16(%rbp)
	movq	-24(%rbp), %rax
	movq	%rax, -40(%rbp)
	call	_ZSt23__is_constant_evaluatedv
	testb	%al, %al
	je	.L44
	movq	-40(%rbp), %rax
	movl	$0, %ecx
	leaq	0(,%rax,4), %rdx
	shrq	$62, %rax
	testq	%rax, %rax
	je	.L45
	movl	$1, %ecx
.L45:
	movq	%rdx, %rax
	movq	%rax, -40(%rbp)
	movq	%rcx, %rax
	andl	$1, %eax
	testb	%al, %al
	je	.L47
	movq	-8(%rbp), %rax
	subq	%fs:40, %rax
	je	.L48
	call	__stack_chk_fail@PLT
.L48:
	call	_ZSt28__throw_bad_array_new_lengthv@PLT
.L47:
	movq	-40(%rbp), %rax
	movq	%rax, %rdi
	call	_Znwm@PLT
	jmp	.L49
.L44:
	movq	-40(%rbp), %rcx
	movq	-16(%rbp), %rax
	movl	$0, %edx
	movq	%rcx, %rsi
	movq	%rax, %rdi
	call	_ZNSt15__new_allocatorIfE8allocateEmPKv
	nop
.L49:
	nop
	jmp	.L51
.L43:
	movl	$0, %eax
.L51:
	movq	-8(%rbp), %rdx
	subq	%fs:40, %rdx
	je	.L53
	call	__stack_chk_fail@PLT
.L53:
	leave
	.cfi_def_cfa 7, 8
	ret
	.cfi_endproc
.LFE2880:
	.size	_ZNSt12_Vector_baseIfSaIfEE11_M_allocateEm, .-_ZNSt12_Vector_baseIfSaIfEE11_M_allocateEm
	.section	.text._ZNKSt6vectorIfSaIfEE4sizeEv,"axG",@progbits,_ZNKSt6vectorIfSaIfEE4sizeEv,comdat
	.align 2
	.weak	_ZNKSt6vectorIfSaIfEE4sizeEv
	.type	_ZNKSt6vectorIfSaIfEE4sizeEv, @function
_ZNKSt6vectorIfSaIfEE4sizeEv:
.LFB2883:
	.cfi_startproc
	endbr64
	pushq	%rbp
	.cfi_def_cfa_offset 16
	.cfi_offset 6, -16
	movq	%rsp, %rbp
	.cfi_def_cfa_register 6
	movq	%rdi, -8(%rbp)
	movq	-8(%rbp), %rax
	movq	8(%rax), %rdx
	movq	-8(%rbp), %rax
	movq	(%rax), %rax
	subq	%rax, %rdx
	movq	%rdx, %rax
	sarq	$2, %rax
	popq	%rbp
	.cfi_def_cfa 7, 8
	ret
	.cfi_endproc
.LFE2883:
	.size	_ZNKSt6vectorIfSaIfEE4sizeEv, .-_ZNKSt6vectorIfSaIfEE4sizeEv
	.section	.text._ZNSt6vectorIfSaIfEEixEm,"axG",@progbits,_ZNSt6vectorIfSaIfEEixEm,comdat
	.align 2
	.weak	_ZNSt6vectorIfSaIfEEixEm
	.type	_ZNSt6vectorIfSaIfEEixEm, @function
_ZNSt6vectorIfSaIfEEixEm:
.LFB2884:
	.cfi_startproc
	endbr64
	pushq	%rbp
	.cfi_def_cfa_offset 16
	.cfi_offset 6, -16
	movq	%rsp, %rbp
	.cfi_def_cfa_register 6
	movq	%rdi, -8(%rbp)
	movq	%rsi, -16(%rbp)
	movq	-8(%rbp), %rax
	movq	(%rax), %rax
	movq	-16(%rbp), %rdx
	salq	$2, %rdx
	addq	%rdx, %rax
	popq	%rbp
	.cfi_def_cfa 7, 8
	ret
	.cfi_endproc
.LFE2884:
	.size	_ZNSt6vectorIfSaIfEEixEm, .-_ZNSt6vectorIfSaIfEEixEm
	.section	.text._ZNSt6vectorIiSaIiEEC1ESt16initializer_listIiERKS0_,"axG",@progbits,_ZNSt6vectorIiSaIiEEC1ESt16initializer_listIiERKS0_,comdat
	.align 2
	.weak	_ZNSt6vectorIiSaIiEEC1ESt16initializer_listIiERKS0_
	.type	_ZNSt6vectorIiSaIiEEC1ESt16initializer_listIiERKS0_, @function
_ZNSt6vectorIiSaIiEEC1ESt16initializer_listIiERKS0_:
.LFB2893:
	.cfi_startproc
	.cfi_personality 0x9b,DW.ref.__gxx_personality_v0
	.cfi_lsda 0x1b,.LLSDA2893
	endbr64
	pushq	%rbp
	.cfi_def_cfa_offset 16
	.cfi_offset 6, -16
	movq	%rsp, %rbp
	.cfi_def_cfa_register 6
	pushq	%rbx
	subq	$56, %rsp
	.cfi_offset 3, -24
	movq	%rdi, -40(%rbp)
	movq	%rsi, %rax
	movq	%rdx, %rsi
	movq	%rsi, %rdx
	movq	%rax, -64(%rbp)
	movq	%rdx, -56(%rbp)
	movq	%rcx, -48(%rbp)
	movq	%fs:40, %rax
	movq	%rax, -24(%rbp)
	xorl	%eax, %eax
	movq	-40(%rbp), %rax
	movq	-48(%rbp), %rdx
	movq	%rdx, %rsi
	movq	%rax, %rdi
	call	_ZNSt12_Vector_baseIiSaIiEEC2ERKS0_
	leaq	-64(%rbp), %rax
	movq	%rax, %rdi
	call	_ZNKSt16initializer_listIiE3endEv
	movq	%rax, %rbx
	leaq	-64(%rbp), %rax
	movq	%rax, %rdi
	call	_ZNKSt16initializer_listIiE5beginEv
	movq	%rax, %rcx
	movq	-40(%rbp), %rax
	movq	%rbx, %rdx
	movq	%rcx, %rsi
	movq	%rax, %rdi
.LEHB2:
	call	_ZNSt6vectorIiSaIiEE19_M_range_initializeIPKiEEvT_S5_St20forward_iterator_tag
.LEHE2:
	jmp	.L63
.L62:
	endbr64
	movq	%rax, %rbx
	movq	-40(%rbp), %rax
	movq	%rax, %rdi
	call	_ZNSt12_Vector_baseIiSaIiEED2Ev
	movq	%rbx, %rax
	movq	-24(%rbp), %rdx
	subq	%fs:40, %rdx
	je	.L60
	call	__stack_chk_fail@PLT
.L60:
	movq	%rax, %rdi
.LEHB3:
	call	_Unwind_Resume@PLT
.LEHE3:
.L63:
	movq	-24(%rbp), %rax
	subq	%fs:40, %rax
	je	.L61
	call	__stack_chk_fail@PLT
.L61:
	movq	-8(%rbp), %rbx
	leave
	.cfi_def_cfa 7, 8
	ret
	.cfi_endproc
.LFE2893:
	.section	.gcc_except_table._ZNSt6vectorIiSaIiEEC1ESt16initializer_listIiERKS0_,"aG",@progbits,_ZNSt6vectorIiSaIiEEC1ESt16initializer_listIiERKS0_,comdat
.LLSDA2893:
	.byte	0xff
	.byte	0xff
	.byte	0x1
	.uleb128 .LLSDACSE2893-.LLSDACSB2893
.LLSDACSB2893:
	.uleb128 .LEHB2-.LFB2893
	.uleb128 .LEHE2-.LEHB2
	.uleb128 .L62-.LFB2893
	.uleb128 0
	.uleb128 .LEHB3-.LFB2893
	.uleb128 .LEHE3-.LEHB3
	.uleb128 0
	.uleb128 0
.LLSDACSE2893:
	.section	.text._ZNSt6vectorIiSaIiEEC1ESt16initializer_listIiERKS0_,"axG",@progbits,_ZNSt6vectorIiSaIiEEC1ESt16initializer_listIiERKS0_,comdat
	.size	_ZNSt6vectorIiSaIiEEC1ESt16initializer_listIiERKS0_, .-_ZNSt6vectorIiSaIiEEC1ESt16initializer_listIiERKS0_
	.section	.text._ZNSt12_Vector_baseIiSaIiEE12_Vector_implD2Ev,"axG",@progbits,_ZNSt12_Vector_baseIiSaIiEE12_Vector_implD5Ev,comdat
	.align 2
	.weak	_ZNSt12_Vector_baseIiSaIiEE12_Vector_implD2Ev
	.type	_ZNSt12_Vector_baseIiSaIiEE12_Vector_implD2Ev, @function
_ZNSt12_Vector_baseIiSaIiEE12_Vector_implD2Ev:
.LFB2896:
	.cfi_startproc
	endbr64
	pushq	%rbp
	.cfi_def_cfa_offset 16
	.cfi_offset 6, -16
	movq	%rsp, %rbp
	.cfi_def_cfa_register 6
	movq	%rdi, -24(%rbp)
	movq	-24(%rbp), %rax
	movq	%rax, -8(%rbp)
	nop
	nop
	popq	%rbp
	.cfi_def_cfa 7, 8
	ret
	.cfi_endproc
.LFE2896:
	.size	_ZNSt12_Vector_baseIiSaIiEE12_Vector_implD2Ev, .-_ZNSt12_Vector_baseIiSaIiEE12_Vector_implD2Ev
	.weak	_ZNSt12_Vector_baseIiSaIiEE12_Vector_implD1Ev
	.set	_ZNSt12_Vector_baseIiSaIiEE12_Vector_implD1Ev,_ZNSt12_Vector_baseIiSaIiEE12_Vector_implD2Ev
	.section	.text._ZNSt12_Vector_baseIiSaIiEEC2ERKS0_,"axG",@progbits,_ZNSt12_Vector_baseIiSaIiEEC2ERKS0_,comdat
	.align 2
	.weak	_ZNSt12_Vector_baseIiSaIiEEC2ERKS0_
	.type	_ZNSt12_Vector_baseIiSaIiEEC2ERKS0_, @function
_ZNSt12_Vector_baseIiSaIiEEC2ERKS0_:
.LFB2898:
	.cfi_startproc
	endbr64
	pushq	%rbp
	.cfi_def_cfa_offset 16
	.cfi_offset 6, -16
	movq	%rsp, %rbp
	.cfi_def_cfa_register 6
	subq	$16, %rsp
	movq	%rdi, -8(%rbp)
	movq	%rsi, -16(%rbp)
	movq	-8(%rbp), %rax
	movq	-16(%rbp), %rdx
	movq	%rdx, %rsi
	movq	%rax, %rdi
	call	_ZNSt12_Vector_baseIiSaIiEE12_Vector_implC1ERKS0_
	nop
	leave
	.cfi_def_cfa 7, 8
	ret
	.cfi_endproc
.LFE2898:
	.size	_ZNSt12_Vector_baseIiSaIiEEC2ERKS0_, .-_ZNSt12_Vector_baseIiSaIiEEC2ERKS0_
	.section	.text._ZNSt12_Vector_baseIiSaIiEE12_Vector_implC1ERKS0_,"axG",@progbits,_ZNSt12_Vector_baseIiSaIiEE12_Vector_implC1ERKS0_,comdat
	.align 2
	.weak	_ZNSt12_Vector_baseIiSaIiEE12_Vector_implC1ERKS0_
	.type	_ZNSt12_Vector_baseIiSaIiEE12_Vector_implC1ERKS0_, @function
_ZNSt12_Vector_baseIiSaIiEE12_Vector_implC1ERKS0_:
.LFB2902:
	.cfi_startproc
	endbr64
	pushq	%rbp
	.cfi_def_cfa_offset 16
	.cfi_offset 6, -16
	movq	%rsp, %rbp
	.cfi_def_cfa_register 6
	subq	$48, %rsp
	movq	%rdi, -40(%rbp)
	movq	%rsi, -48(%rbp)
	movq	-40(%rbp), %rax
	movq	%rax, -32(%rbp)
	movq	-48(%rbp), %rax
	movq	%rax, -24(%rbp)
	movq	-32(%rbp), %rax
	movq	%rax, -16(%rbp)
	movq	-24(%rbp), %rax
	movq	%rax, -8(%rbp)
	nop
	nop
	movq	-40(%rbp), %rax
	movq	%rax, %rdi
	call	_ZNSt12_Vector_baseIiSaIiEE17_Vector_impl_dataC2Ev
	nop
	leave
	.cfi_def_cfa 7, 8
	ret
	.cfi_endproc
.LFE2902:
	.size	_ZNSt12_Vector_baseIiSaIiEE12_Vector_implC1ERKS0_, .-_ZNSt12_Vector_baseIiSaIiEE12_Vector_implC1ERKS0_
	.section	.text._ZNSt12_Vector_baseIiSaIiEE17_Vector_impl_dataC2Ev,"axG",@progbits,_ZNSt12_Vector_baseIiSaIiEE17_Vector_impl_dataC2Ev,comdat
	.align 2
	.weak	_ZNSt12_Vector_baseIiSaIiEE17_Vector_impl_dataC2Ev
	.type	_ZNSt12_Vector_baseIiSaIiEE17_Vector_impl_dataC2Ev, @function
_ZNSt12_Vector_baseIiSaIiEE17_Vector_impl_dataC2Ev:
.LFB2910:
	.cfi_startproc
	endbr64
	pushq	%rbp
	.cfi_def_cfa_offset 16
	.cfi_offset 6, -16
	movq	%rsp, %rbp
	.cfi_def_cfa_register 6
	movq	%rdi, -8(%rbp)
	movq	-8(%rbp), %rax
	movq	$0, (%rax)
	movq	-8(%rbp), %rax
	movq	$0, 8(%rax)
	movq	-8(%rbp), %rax
	movq	$0, 16(%rax)
	nop
	popq	%rbp
	.cfi_def_cfa 7, 8
	ret
	.cfi_endproc
.LFE2910:
	.size	_ZNSt12_Vector_baseIiSaIiEE17_Vector_impl_dataC2Ev, .-_ZNSt12_Vector_baseIiSaIiEE17_Vector_impl_dataC2Ev
	.section	.text._ZNKSt16initializer_listIiE5beginEv,"axG",@progbits,_ZNKSt16initializer_listIiE5beginEv,comdat
	.align 2
	.weak	_ZNKSt16initializer_listIiE5beginEv
	.type	_ZNKSt16initializer_listIiE5beginEv, @function
_ZNKSt16initializer_listIiE5beginEv:
.LFB2912:
	.cfi_startproc
	endbr64
	pushq	%rbp
	.cfi_def_cfa_offset 16
	.cfi_offset 6, -16
	movq	%rsp, %rbp
	.cfi_def_cfa_register 6
	movq	%rdi, -8(%rbp)
	movq	-8(%rbp), %rax
	movq	(%rax), %rax
	popq	%rbp
	.cfi_def_cfa 7, 8
	ret
	.cfi_endproc
.LFE2912:
	.size	_ZNKSt16initializer_listIiE5beginEv, .-_ZNKSt16initializer_listIiE5beginEv
	.section	.text._ZNKSt16initializer_listIiE3endEv,"axG",@progbits,_ZNKSt16initializer_listIiE3endEv,comdat
	.align 2
	.weak	_ZNKSt16initializer_listIiE3endEv
	.type	_ZNKSt16initializer_listIiE3endEv, @function
_ZNKSt16initializer_listIiE3endEv:
.LFB2913:
	.cfi_startproc
	endbr64
	pushq	%rbp
	.cfi_def_cfa_offset 16
	.cfi_offset 6, -16
	movq	%rsp, %rbp
	.cfi_def_cfa_register 6
	pushq	%rbx
	subq	$24, %rsp
	.cfi_offset 3, -24
	movq	%rdi, -24(%rbp)
	movq	-24(%rbp), %rax
	movq	%rax, %rdi
	call	_ZNKSt16initializer_listIiE5beginEv
	movq	%rax, %rbx
	movq	-24(%rbp), %rax
	movq	%rax, %rdi
	call	_ZNKSt16initializer_listIiE4sizeEv
	salq	$2, %rax
	addq	%rbx, %rax
	movq	-8(%rbp), %rbx
	leave
	.cfi_def_cfa 7, 8
	ret
	.cfi_endproc
.LFE2913:
	.size	_ZNKSt16initializer_listIiE3endEv, .-_ZNKSt16initializer_listIiE3endEv
	.section	.text._ZNKSt16initializer_listIiE4sizeEv,"axG",@progbits,_ZNKSt16initializer_listIiE4sizeEv,comdat
	.align 2
	.weak	_ZNKSt16initializer_listIiE4sizeEv
	.type	_ZNKSt16initializer_listIiE4sizeEv, @function
_ZNKSt16initializer_listIiE4sizeEv:
.LFB2914:
	.cfi_startproc
	endbr64
	pushq	%rbp
	.cfi_def_cfa_offset 16
	.cfi_offset 6, -16
	movq	%rsp, %rbp
	.cfi_def_cfa_register 6
	movq	%rdi, -8(%rbp)
	movq	-8(%rbp), %rax
	movq	8(%rax), %rax
	popq	%rbp
	.cfi_def_cfa 7, 8
	ret
	.cfi_endproc
.LFE2914:
	.size	_ZNKSt16initializer_listIiE4sizeEv, .-_ZNKSt16initializer_listIiE4sizeEv
	.section	.text._ZNSt6vectorIiSaIiEE19_M_range_initializeIPKiEEvT_S5_St20forward_iterator_tag,"axG",@progbits,_ZNSt6vectorIiSaIiEE19_M_range_initializeIPKiEEvT_S5_St20forward_iterator_tag,comdat
	.align 2
	.weak	_ZNSt6vectorIiSaIiEE19_M_range_initializeIPKiEEvT_S5_St20forward_iterator_tag
	.type	_ZNSt6vectorIiSaIiEE19_M_range_initializeIPKiEEvT_S5_St20forward_iterator_tag, @function
_ZNSt6vectorIiSaIiEE19_M_range_initializeIPKiEEvT_S5_St20forward_iterator_tag:
.LFB2915:
	.cfi_startproc
	endbr64
	pushq	%rbp
	.cfi_def_cfa_offset 16
	.cfi_offset 6, -16
	movq	%rsp, %rbp
	.cfi_def_cfa_register 6
	pushq	%rbx
	subq	$88, %rsp
	.cfi_offset 3, -24
	movq	%rdi, -72(%rbp)
	movq	%rsi, -80(%rbp)
	movq	%rdx, -88(%rbp)
	movq	%fs:40, %rax
	movq	%rax, -24(%rbp)
	xorl	%eax, %eax
	movq	-80(%rbp), %rax
	movq	%rax, -64(%rbp)
	movq	-88(%rbp), %rax
	movq	%rax, -48(%rbp)
	nop
	movq	-64(%rbp), %rax
	movq	%rax, -40(%rbp)
	movq	-48(%rbp), %rax
	movq	%rax, -32(%rbp)
	movq	-32(%rbp), %rax
	subq	-40(%rbp), %rax
	sarq	$2, %rax
	nop
	movq	%rax, -56(%rbp)
	movq	-72(%rbp), %rbx
	movq	-72(%rbp), %rax
	movq	%rax, %rdi
	call	_ZNSt12_Vector_baseIiSaIiEE19_M_get_Tp_allocatorEv
	movq	%rax, %rdx
	movq	-56(%rbp), %rax
	movq	%rdx, %rsi
	movq	%rax, %rdi
	call	_ZNSt6vectorIiSaIiEE17_S_check_init_lenEmRKS0_
	movq	%rax, %rsi
	movq	%rbx, %rdi
	call	_ZNSt12_Vector_baseIiSaIiEE11_M_allocateEm
	movq	-72(%rbp), %rdx
	movq	%rax, (%rdx)
	movq	-72(%rbp), %rax
	movq	(%rax), %rax
	movq	-56(%rbp), %rdx
	salq	$2, %rdx
	addq	%rax, %rdx
	movq	-72(%rbp), %rax
	movq	%rdx, 16(%rax)
	movq	-72(%rbp), %rax
	movq	%rax, %rdi
	call	_ZNSt12_Vector_baseIiSaIiEE19_M_get_Tp_allocatorEv
	movq	%rax, %rcx
	movq	-72(%rbp), %rax
	movq	(%rax), %rdx
	movq	-88(%rbp), %rsi
	movq	-80(%rbp), %rax
	movq	%rax, %rdi
	call	_ZSt22__uninitialized_copy_aIPKiPiiET0_T_S4_S3_RSaIT1_E
	movq	-72(%rbp), %rdx
	movq	%rax, 8(%rdx)
	nop
	movq	-24(%rbp), %rax
	subq	%fs:40, %rax
	je	.L78
	call	__stack_chk_fail@PLT
.L78:
	movq	-8(%rbp), %rbx
	leave
	.cfi_def_cfa 7, 8
	ret
	.cfi_endproc
.LFE2915:
	.size	_ZNSt6vectorIiSaIiEE19_M_range_initializeIPKiEEvT_S5_St20forward_iterator_tag, .-_ZNSt6vectorIiSaIiEE19_M_range_initializeIPKiEEvT_S5_St20forward_iterator_tag
	.section	.text._ZNSt12_Vector_baseIiSaIiEE19_M_get_Tp_allocatorEv,"axG",@progbits,_ZNSt12_Vector_baseIiSaIiEE19_M_get_Tp_allocatorEv,comdat
	.align 2
	.weak	_ZNSt12_Vector_baseIiSaIiEE19_M_get_Tp_allocatorEv
	.type	_ZNSt12_Vector_baseIiSaIiEE19_M_get_Tp_allocatorEv, @function
_ZNSt12_Vector_baseIiSaIiEE19_M_get_Tp_allocatorEv:
.LFB2919:
	.cfi_startproc
	endbr64
	pushq	%rbp
	.cfi_def_cfa_offset 16
	.cfi_offset 6, -16
	movq	%rsp, %rbp
	.cfi_def_cfa_register 6
	movq	%rdi, -8(%rbp)
	movq	-8(%rbp), %rax
	popq	%rbp
	.cfi_def_cfa 7, 8
	ret
	.cfi_endproc
.LFE2919:
	.size	_ZNSt12_Vector_baseIiSaIiEE19_M_get_Tp_allocatorEv, .-_ZNSt12_Vector_baseIiSaIiEE19_M_get_Tp_allocatorEv
	.section	.text._ZNSt6vectorIiSaIiEE17_S_check_init_lenEmRKS0_,"axG",@progbits,_ZNSt6vectorIiSaIiEE17_S_check_init_lenEmRKS0_,comdat
	.weak	_ZNSt6vectorIiSaIiEE17_S_check_init_lenEmRKS0_
	.type	_ZNSt6vectorIiSaIiEE17_S_check_init_lenEmRKS0_, @function
_ZNSt6vectorIiSaIiEE17_S_check_init_lenEmRKS0_:
.LFB2920:
	.cfi_startproc
	endbr64
	pushq	%rbp
	.cfi_def_cfa_offset 16
	.cfi_offset 6, -16
	movq	%rsp, %rbp
	.cfi_def_cfa_register 6
	subq	$64, %rsp
	movq	%rdi, -56(%rbp)
	movq	%rsi, -64(%rbp)
	movq	%fs:40, %rax
	movq	%rax, -8(%rbp)
	xorl	%eax, %eax
	movq	-64(%rbp), %rax
	movq	%rax, -32(%rbp)
	leaq	-33(%rbp), %rax
	movq	%rax, -24(%rbp)
	movq	-32(%rbp), %rax
	movq	%rax, -16(%rbp)
	nop
	nop
	leaq	-33(%rbp), %rax
	movq	%rax, %rdi
	call	_ZNSt6vectorIiSaIiEE11_S_max_sizeERKS0_
	cmpq	-56(%rbp), %rax
	setb	%al
	nop
	testb	%al, %al
	je	.L82
	movq	-8(%rbp), %rax
	subq	%fs:40, %rax
	je	.L83
	call	__stack_chk_fail@PLT
.L83:
	leaq	.LC0(%rip), %rax
	movq	%rax, %rdi
	call	_ZSt20__throw_length_errorPKc@PLT
.L82:
	movq	-56(%rbp), %rax
	movq	-8(%rbp), %rdx
	subq	%fs:40, %rdx
	je	.L85
	call	__stack_chk_fail@PLT
.L85:
	leave
	.cfi_def_cfa 7, 8
	ret
	.cfi_endproc
.LFE2920:
	.size	_ZNSt6vectorIiSaIiEE17_S_check_init_lenEmRKS0_, .-_ZNSt6vectorIiSaIiEE17_S_check_init_lenEmRKS0_
	.section	.text._ZNSt6vectorIiSaIiEE11_S_max_sizeERKS0_,"axG",@progbits,_ZNSt6vectorIiSaIiEE11_S_max_sizeERKS0_,comdat
	.weak	_ZNSt6vectorIiSaIiEE11_S_max_sizeERKS0_
	.type	_ZNSt6vectorIiSaIiEE11_S_max_sizeERKS0_, @function
_ZNSt6vectorIiSaIiEE11_S_max_sizeERKS0_:
.LFB2921:
	.cfi_startproc
	endbr64
	pushq	%rbp
	.cfi_def_cfa_offset 16
	.cfi_offset 6, -16
	movq	%rsp, %rbp
	.cfi_def_cfa_register 6
	subq	$48, %rsp
	movq	%rdi, -40(%rbp)
	movq	%fs:40, %rax
	movq	%rax, -8(%rbp)
	xorl	%eax, %eax
	movabsq	$2305843009213693951, %rax
	movq	%rax, -32(%rbp)
	movq	-40(%rbp), %rax
	movq	%rax, -16(%rbp)
	movabsq	$4611686018427387903, %rax
	movq	%rax, -24(%rbp)
	leaq	-24(%rbp), %rdx
	leaq	-32(%rbp), %rax
	movq	%rdx, %rsi
	movq	%rax, %rdi
	call	_ZSt3minImERKT_S2_S2_
	movq	(%rax), %rax
	movq	-8(%rbp), %rdx
	subq	%fs:40, %rdx
	je	.L89
	call	__stack_chk_fail@PLT
.L89:
	leave
	.cfi_def_cfa 7, 8
	ret
	.cfi_endproc
.LFE2921:
	.size	_ZNSt6vectorIiSaIiEE11_S_max_sizeERKS0_, .-_ZNSt6vectorIiSaIiEE11_S_max_sizeERKS0_
	.section	.text._ZNSt12_Vector_baseIiSaIiEE11_M_allocateEm,"axG",@progbits,_ZNSt12_Vector_baseIiSaIiEE11_M_allocateEm,comdat
	.align 2
	.weak	_ZNSt12_Vector_baseIiSaIiEE11_M_allocateEm
	.type	_ZNSt12_Vector_baseIiSaIiEE11_M_allocateEm, @function
_ZNSt12_Vector_baseIiSaIiEE11_M_allocateEm:
.LFB2926:
	.cfi_startproc
	endbr64
	pushq	%rbp
	.cfi_def_cfa_offset 16
	.cfi_offset 6, -16
	movq	%rsp, %rbp
	.cfi_def_cfa_register 6
	subq	$64, %rsp
	movq	%rdi, -56(%rbp)
	movq	%rsi, -64(%rbp)
	movq	%fs:40, %rax
	movq	%rax, -8(%rbp)
	xorl	%eax, %eax
	cmpq	$0, -64(%rbp)
	je	.L91
	movq	-56(%rbp), %rax
	movq	%rax, -32(%rbp)
	movq	-64(%rbp), %rax
	movq	%rax, -24(%rbp)
	movq	-32(%rbp), %rax
	movq	%rax, -16(%rbp)
	movq	-24(%rbp), %rax
	movq	%rax, -40(%rbp)
	call	_ZSt23__is_constant_evaluatedv
	testb	%al, %al
	je	.L92
	movq	-40(%rbp), %rax
	movl	$0, %ecx
	leaq	0(,%rax,4), %rdx
	shrq	$62, %rax
	testq	%rax, %rax
	je	.L93
	movl	$1, %ecx
.L93:
	movq	%rdx, %rax
	movq	%rax, -40(%rbp)
	movq	%rcx, %rax
	andl	$1, %eax
	testb	%al, %al
	je	.L95
	movq	-8(%rbp), %rax
	subq	%fs:40, %rax
	je	.L96
	call	__stack_chk_fail@PLT
.L96:
	call	_ZSt28__throw_bad_array_new_lengthv@PLT
.L95:
	movq	-40(%rbp), %rax
	movq	%rax, %rdi
	call	_Znwm@PLT
	jmp	.L97
.L92:
	movq	-40(%rbp), %rcx
	movq	-16(%rbp), %rax
	movl	$0, %edx
	movq	%rcx, %rsi
	movq	%rax, %rdi
	call	_ZNSt15__new_allocatorIiE8allocateEmPKv
	nop
.L97:
	nop
	jmp	.L99
.L91:
	movl	$0, %eax
.L99:
	movq	-8(%rbp), %rdx
	subq	%fs:40, %rdx
	je	.L101
	call	__stack_chk_fail@PLT
.L101:
	leave
	.cfi_def_cfa 7, 8
	ret
	.cfi_endproc
.LFE2926:
	.size	_ZNSt12_Vector_baseIiSaIiEE11_M_allocateEm, .-_ZNSt12_Vector_baseIiSaIiEE11_M_allocateEm
	.section	.rodata
.LC1:
	.string	"47 countEqualItems Template\n"
.LC5:
	.string	"v = {"
.LC6:
	.string	", "
.LC7:
	.string	"}"
.LC8:
	.string	"v.size() = "
.LC9:
	.string	"sizeof(float) = "
.LC10:
	.string	"total bytes = "
.LC11:
	.string	"secondItem = v[1] = "
.LC12:
	.string	"=== TRACE ==="
.LC13:
	.string	"i=0: v[0]="
.LC14:
	.string	" == "
.LC15:
	.string	"? "
.LC16:
	.string	"\342\234\223"
.LC17:
	.string	"\342\234\227"
.LC18:
	.string	"i=1: v[1]="
.LC19:
	.string	"i=2: v[2]="
.LC20:
	.string	"i=3: v[3]="
.LC21:
	.string	"numItems = "
	.align 8
.LC22:
	.string	"expected = 2 (v[1]=2.0f and v[3]=2.0f)"
.LC23:
	.string	"\342\234\223 PASS"
.LC24:
	.string	"\342\234\227 FAIL"
.LC25:
	.string	"countEqualItems(v, 3.0f) = "
.LC26:
	.string	" (expected 1)"
.LC28:
	.string	"countEqualItems(v, 5.0f) = "
.LC29:
	.string	" (expected 0)"
.LC30:
	.string	"\n=== INT VECTOR ==="
.LC31:
	.string	"vi = {10, 20, 30, 20, 20, 40}"
.LC32:
	.string	"countEqualItems(vi, 20) = "
.LC33:
	.string	" (expected 3)"
	.text
	.globl	main
	.type	main, @function
main:
.LFB2837:
	.cfi_startproc
	.cfi_personality 0x9b,DW.ref.__gxx_personality_v0
	.cfi_lsda 0x1b,.LLSDA2837
	endbr64
	pushq	%rbp
	.cfi_def_cfa_offset 16
	.cfi_offset 6, -16
	movq	%rsp, %rbp
	.cfi_def_cfa_register 6
	pushq	%r15
	pushq	%r14
	pushq	%r13
	pushq	%r12
	pushq	%rbx
	subq	$152, %rsp
	.cfi_offset 15, -24
	.cfi_offset 14, -32
	.cfi_offset 13, -40
	.cfi_offset 12, -48
	.cfi_offset 3, -56
	movq	%fs:40, %rax
	movq	%rax, -56(%rbp)
	xorl	%eax, %eax
	leaq	.LC1(%rip), %rax
	movq	%rax, %rsi
	leaq	_ZSt4cout(%rip), %rax
	movq	%rax, %rdi
.LEHB4:
	call	_ZStlsISt11char_traitsIcEERSt13basic_ostreamIcT_ES5_PKc@PLT
	movq	_ZSt4endlIcSt11char_traitsIcEERSt13basic_ostreamIT_T0_ES6_@GOTPCREL(%rip), %rdx
	movq	%rdx, %rsi
	movq	%rax, %rdi
	call	_ZNSolsEPFRSoS_E@PLT
	movss	.LC2(%rip), %xmm0
	movss	%xmm0, -80(%rbp)
	movss	.LC3(%rip), %xmm0
	movss	%xmm0, -76(%rbp)
	movss	.LC4(%rip), %xmm0
	movss	%xmm0, -72(%rbp)
	movss	.LC3(%rip), %xmm0
	movss	%xmm0, -68(%rbp)
	leaq	-80(%rbp), %rax
	movq	%rax, %r14
	movl	$4, %r15d
	leaq	-112(%rbp), %rax
	movq	%rax, -160(%rbp)
	nop
	nop
	leaq	-112(%rbp), %rdx
	movq	%r14, %rsi
	movq	%r15, %rdi
	movq	%r14, %rcx
	movq	%r15, %rbx
	movq	%rbx, %rdi
	leaq	-144(%rbp), %rax
	movq	%rdx, %rcx
	movq	%rdi, %rdx
	movq	%rax, %rdi
	call	_ZNSt6vectorIfSaIfEEC1ESt16initializer_listIfERKS0_
.LEHE4:
	nop
	leaq	.LC5(%rip), %rax
	movq	%rax, %rsi
	leaq	_ZSt4cout(%rip), %rax
	movq	%rax, %rdi
.LEHB5:
	call	_ZStlsISt11char_traitsIcEERSt13basic_ostreamIcT_ES5_PKc@PLT
	movq	$0, -168(%rbp)
	jmp	.L103
.L105:
	movq	-168(%rbp), %rdx
	leaq	-144(%rbp), %rax
	movq	%rdx, %rsi
	movq	%rax, %rdi
	call	_ZNSt6vectorIfSaIfEEixEm
	movl	(%rax), %eax
	movd	%eax, %xmm0
	leaq	_ZSt4cout(%rip), %rax
	movq	%rax, %rdi
	call	_ZNSolsEf@PLT
	leaq	-144(%rbp), %rax
	movq	%rax, %rdi
	call	_ZNKSt6vectorIfSaIfEE4sizeEv
	subq	$1, %rax
	cmpq	%rax, -168(%rbp)
	setb	%al
	testb	%al, %al
	je	.L104
	leaq	.LC6(%rip), %rax
	movq	%rax, %rsi
	leaq	_ZSt4cout(%rip), %rax
	movq	%rax, %rdi
	call	_ZStlsISt11char_traitsIcEERSt13basic_ostreamIcT_ES5_PKc@PLT
.L104:
	addq	$1, -168(%rbp)
.L103:
	leaq	-144(%rbp), %rax
	movq	%rax, %rdi
	call	_ZNKSt6vectorIfSaIfEE4sizeEv
	cmpq	%rax, -168(%rbp)
	setb	%al
	testb	%al, %al
	jne	.L105
	leaq	.LC7(%rip), %rax
	movq	%rax, %rsi
	leaq	_ZSt4cout(%rip), %rax
	movq	%rax, %rdi
	call	_ZStlsISt11char_traitsIcEERSt13basic_ostreamIcT_ES5_PKc@PLT
	movq	_ZSt4endlIcSt11char_traitsIcEERSt13basic_ostreamIT_T0_ES6_@GOTPCREL(%rip), %rdx
	movq	%rdx, %rsi
	movq	%rax, %rdi
	call	_ZNSolsEPFRSoS_E@PLT
	leaq	.LC8(%rip), %rax
	movq	%rax, %rsi
	leaq	_ZSt4cout(%rip), %rax
	movq	%rax, %rdi
	call	_ZStlsISt11char_traitsIcEERSt13basic_ostreamIcT_ES5_PKc@PLT
	movq	%rax, %rbx
	leaq	-144(%rbp), %rax
	movq	%rax, %rdi
	call	_ZNKSt6vectorIfSaIfEE4sizeEv
	movq	%rax, %rsi
	movq	%rbx, %rdi
	call	_ZNSolsEm@PLT
	movq	_ZSt4endlIcSt11char_traitsIcEERSt13basic_ostreamIT_T0_ES6_@GOTPCREL(%rip), %rdx
	movq	%rdx, %rsi
	movq	%rax, %rdi
	call	_ZNSolsEPFRSoS_E@PLT
	leaq	.LC9(%rip), %rax
	movq	%rax, %rsi
	leaq	_ZSt4cout(%rip), %rax
	movq	%rax, %rdi
	call	_ZStlsISt11char_traitsIcEERSt13basic_ostreamIcT_ES5_PKc@PLT
	movl	$4, %esi
	movq	%rax, %rdi
	call	_ZNSolsEm@PLT
	movq	_ZSt4endlIcSt11char_traitsIcEERSt13basic_ostreamIT_T0_ES6_@GOTPCREL(%rip), %rdx
	movq	%rdx, %rsi
	movq	%rax, %rdi
	call	_ZNSolsEPFRSoS_E@PLT
	leaq	.LC10(%rip), %rax
	movq	%rax, %rsi
	leaq	_ZSt4cout(%rip), %rax
	movq	%rax, %rdi
	call	_ZStlsISt11char_traitsIcEERSt13basic_ostreamIcT_ES5_PKc@PLT
	movq	%rax, %rbx
	leaq	-144(%rbp), %rax
	movq	%rax, %rdi
	call	_ZNKSt6vectorIfSaIfEE4sizeEv
	salq	$2, %rax
	movq	%rax, %rsi
	movq	%rbx, %rdi
	call	_ZNSolsEm@PLT
	movq	_ZSt4endlIcSt11char_traitsIcEERSt13basic_ostreamIT_T0_ES6_@GOTPCREL(%rip), %rdx
	movq	%rdx, %rsi
	movq	%rax, %rdi
	call	_ZNSolsEPFRSoS_E@PLT
	movq	_ZSt4endlIcSt11char_traitsIcEERSt13basic_ostreamIT_T0_ES6_@GOTPCREL(%rip), %rax
	movq	%rax, %rsi
	leaq	_ZSt4cout(%rip), %rax
	movq	%rax, %rdi
	call	_ZNSolsEPFRSoS_E@PLT
	leaq	-144(%rbp), %rax
	movl	$1, %esi
	movq	%rax, %rdi
	call	_ZNSt6vectorIfSaIfEEixEm
	movss	(%rax), %xmm0
	movss	%xmm0, -188(%rbp)
	leaq	.LC11(%rip), %rax
	movq	%rax, %rsi
	leaq	_ZSt4cout(%rip), %rax
	movq	%rax, %rdi
	call	_ZStlsISt11char_traitsIcEERSt13basic_ostreamIcT_ES5_PKc@PLT
	movq	%rax, %rdx
	movl	-188(%rbp), %eax
	movd	%eax, %xmm0
	movq	%rdx, %rdi
	call	_ZNSolsEf@PLT
	movq	_ZSt4endlIcSt11char_traitsIcEERSt13basic_ostreamIT_T0_ES6_@GOTPCREL(%rip), %rdx
	movq	%rdx, %rsi
	movq	%rax, %rdi
	call	_ZNSolsEPFRSoS_E@PLT
	movq	_ZSt4endlIcSt11char_traitsIcEERSt13basic_ostreamIT_T0_ES6_@GOTPCREL(%rip), %rax
	movq	%rax, %rsi
	leaq	_ZSt4cout(%rip), %rax
	movq	%rax, %rdi
	call	_ZNSolsEPFRSoS_E@PLT
	movl	-188(%rbp), %edx
	leaq	-144(%rbp), %rax
	movd	%edx, %xmm0
	movq	%rax, %rdi
	call	_Z15countEqualItemsIfEiRKSt6vectorIT_SaIS1_EES1_
	movl	%eax, -184(%rbp)
	leaq	.LC12(%rip), %rax
	movq	%rax, %rsi
	leaq	_ZSt4cout(%rip), %rax
	movq	%rax, %rdi
	call	_ZStlsISt11char_traitsIcEERSt13basic_ostreamIcT_ES5_PKc@PLT
	movq	_ZSt4endlIcSt11char_traitsIcEERSt13basic_ostreamIT_T0_ES6_@GOTPCREL(%rip), %rdx
	movq	%rdx, %rsi
	movq	%rax, %rdi
	call	_ZNSolsEPFRSoS_E@PLT
	leaq	.LC13(%rip), %rax
	movq	%rax, %rsi
	leaq	_ZSt4cout(%rip), %rax
	movq	%rax, %rdi
	call	_ZStlsISt11char_traitsIcEERSt13basic_ostreamIcT_ES5_PKc@PLT
	movq	%rax, %rbx
	leaq	-144(%rbp), %rax
	movl	$0, %esi
	movq	%rax, %rdi
	call	_ZNSt6vectorIfSaIfEEixEm
	movl	(%rax), %eax
	movd	%eax, %xmm0
	movq	%rbx, %rdi
	call	_ZNSolsEf@PLT
	movq	%rax, %rdx
	leaq	.LC14(%rip), %rax
	movq	%rax, %rsi
	movq	%rdx, %rdi
	call	_ZStlsISt11char_traitsIcEERSt13basic_ostreamIcT_ES5_PKc@PLT
	movq	%rax, %rdx
	movl	-188(%rbp), %eax
	movd	%eax, %xmm0
	movq	%rdx, %rdi
	call	_ZNSolsEf@PLT
	movq	%rax, %rdx
	leaq	.LC15(%rip), %rax
	movq	%rax, %rsi
	movq	%rdx, %rdi
	call	_ZStlsISt11char_traitsIcEERSt13basic_ostreamIcT_ES5_PKc@PLT
	movq	%rax, %rbx
	leaq	-144(%rbp), %rax
	movl	$0, %esi
	movq	%rax, %rdi
	call	_ZNSt6vectorIfSaIfEEixEm
	movss	(%rax), %xmm0
	ucomiss	-188(%rbp), %xmm0
	jp	.L106
	ucomiss	-188(%rbp), %xmm0
	jne	.L106
	leaq	.LC16(%rip), %rax
	jmp	.L108
.L106:
	leaq	.LC17(%rip), %rax
.L108:
	movq	%rax, %rsi
	movq	%rbx, %rdi
	call	_ZStlsISt11char_traitsIcEERSt13basic_ostreamIcT_ES5_PKc@PLT
	movq	_ZSt4endlIcSt11char_traitsIcEERSt13basic_ostreamIT_T0_ES6_@GOTPCREL(%rip), %rdx
	movq	%rdx, %rsi
	movq	%rax, %rdi
	call	_ZNSolsEPFRSoS_E@PLT
	leaq	.LC18(%rip), %rax
	movq	%rax, %rsi
	leaq	_ZSt4cout(%rip), %rax
	movq	%rax, %rdi
	call	_ZStlsISt11char_traitsIcEERSt13basic_ostreamIcT_ES5_PKc@PLT
	movq	%rax, %rbx
	leaq	-144(%rbp), %rax
	movl	$1, %esi
	movq	%rax, %rdi
	call	_ZNSt6vectorIfSaIfEEixEm
	movl	(%rax), %eax
	movd	%eax, %xmm0
	movq	%rbx, %rdi
	call	_ZNSolsEf@PLT
	movq	%rax, %rdx
	leaq	.LC14(%rip), %rax
	movq	%rax, %rsi
	movq	%rdx, %rdi
	call	_ZStlsISt11char_traitsIcEERSt13basic_ostreamIcT_ES5_PKc@PLT
	movq	%rax, %rdx
	movl	-188(%rbp), %eax
	movd	%eax, %xmm0
	movq	%rdx, %rdi
	call	_ZNSolsEf@PLT
	movq	%rax, %rdx
	leaq	.LC15(%rip), %rax
	movq	%rax, %rsi
	movq	%rdx, %rdi
	call	_ZStlsISt11char_traitsIcEERSt13basic_ostreamIcT_ES5_PKc@PLT
	movq	%rax, %rbx
	leaq	-144(%rbp), %rax
	movl	$1, %esi
	movq	%rax, %rdi
	call	_ZNSt6vectorIfSaIfEEixEm
	movss	(%rax), %xmm0
	ucomiss	-188(%rbp), %xmm0
	jp	.L109
	ucomiss	-188(%rbp), %xmm0
	jne	.L109
	leaq	.LC16(%rip), %rax
	jmp	.L111
.L109:
	leaq	.LC17(%rip), %rax
.L111:
	movq	%rax, %rsi
	movq	%rbx, %rdi
	call	_ZStlsISt11char_traitsIcEERSt13basic_ostreamIcT_ES5_PKc@PLT
	movq	_ZSt4endlIcSt11char_traitsIcEERSt13basic_ostreamIT_T0_ES6_@GOTPCREL(%rip), %rdx
	movq	%rdx, %rsi
	movq	%rax, %rdi
	call	_ZNSolsEPFRSoS_E@PLT
	leaq	.LC19(%rip), %rax
	movq	%rax, %rsi
	leaq	_ZSt4cout(%rip), %rax
	movq	%rax, %rdi
	call	_ZStlsISt11char_traitsIcEERSt13basic_ostreamIcT_ES5_PKc@PLT
	movq	%rax, %rbx
	leaq	-144(%rbp), %rax
	movl	$2, %esi
	movq	%rax, %rdi
	call	_ZNSt6vectorIfSaIfEEixEm
	movl	(%rax), %eax
	movd	%eax, %xmm0
	movq	%rbx, %rdi
	call	_ZNSolsEf@PLT
	movq	%rax, %rdx
	leaq	.LC14(%rip), %rax
	movq	%rax, %rsi
	movq	%rdx, %rdi
	call	_ZStlsISt11char_traitsIcEERSt13basic_ostreamIcT_ES5_PKc@PLT
	movq	%rax, %rdx
	movl	-188(%rbp), %eax
	movd	%eax, %xmm0
	movq	%rdx, %rdi
	call	_ZNSolsEf@PLT
	movq	%rax, %rdx
	leaq	.LC15(%rip), %rax
	movq	%rax, %rsi
	movq	%rdx, %rdi
	call	_ZStlsISt11char_traitsIcEERSt13basic_ostreamIcT_ES5_PKc@PLT
	movq	%rax, %rbx
	leaq	-144(%rbp), %rax
	movl	$2, %esi
	movq	%rax, %rdi
	call	_ZNSt6vectorIfSaIfEEixEm
	movss	(%rax), %xmm0
	ucomiss	-188(%rbp), %xmm0
	jp	.L112
	ucomiss	-188(%rbp), %xmm0
	jne	.L112
	leaq	.LC16(%rip), %rax
	jmp	.L114
.L112:
	leaq	.LC17(%rip), %rax
.L114:
	movq	%rax, %rsi
	movq	%rbx, %rdi
	call	_ZStlsISt11char_traitsIcEERSt13basic_ostreamIcT_ES5_PKc@PLT
	movq	_ZSt4endlIcSt11char_traitsIcEERSt13basic_ostreamIT_T0_ES6_@GOTPCREL(%rip), %rdx
	movq	%rdx, %rsi
	movq	%rax, %rdi
	call	_ZNSolsEPFRSoS_E@PLT
	leaq	.LC20(%rip), %rax
	movq	%rax, %rsi
	leaq	_ZSt4cout(%rip), %rax
	movq	%rax, %rdi
	call	_ZStlsISt11char_traitsIcEERSt13basic_ostreamIcT_ES5_PKc@PLT
	movq	%rax, %rbx
	leaq	-144(%rbp), %rax
	movl	$3, %esi
	movq	%rax, %rdi
	call	_ZNSt6vectorIfSaIfEEixEm
	movl	(%rax), %eax
	movd	%eax, %xmm0
	movq	%rbx, %rdi
	call	_ZNSolsEf@PLT
	movq	%rax, %rdx
	leaq	.LC14(%rip), %rax
	movq	%rax, %rsi
	movq	%rdx, %rdi
	call	_ZStlsISt11char_traitsIcEERSt13basic_ostreamIcT_ES5_PKc@PLT
	movq	%rax, %rdx
	movl	-188(%rbp), %eax
	movd	%eax, %xmm0
	movq	%rdx, %rdi
	call	_ZNSolsEf@PLT
	movq	%rax, %rdx
	leaq	.LC15(%rip), %rax
	movq	%rax, %rsi
	movq	%rdx, %rdi
	call	_ZStlsISt11char_traitsIcEERSt13basic_ostreamIcT_ES5_PKc@PLT
	movq	%rax, %rbx
	leaq	-144(%rbp), %rax
	movl	$3, %esi
	movq	%rax, %rdi
	call	_ZNSt6vectorIfSaIfEEixEm
	movss	(%rax), %xmm0
	ucomiss	-188(%rbp), %xmm0
	jp	.L115
	ucomiss	-188(%rbp), %xmm0
	jne	.L115
	leaq	.LC16(%rip), %rax
	jmp	.L117
.L115:
	leaq	.LC17(%rip), %rax
.L117:
	movq	%rax, %rsi
	movq	%rbx, %rdi
	call	_ZStlsISt11char_traitsIcEERSt13basic_ostreamIcT_ES5_PKc@PLT
	movq	_ZSt4endlIcSt11char_traitsIcEERSt13basic_ostreamIT_T0_ES6_@GOTPCREL(%rip), %rdx
	movq	%rdx, %rsi
	movq	%rax, %rdi
	call	_ZNSolsEPFRSoS_E@PLT
	movq	_ZSt4endlIcSt11char_traitsIcEERSt13basic_ostreamIT_T0_ES6_@GOTPCREL(%rip), %rax
	movq	%rax, %rsi
	leaq	_ZSt4cout(%rip), %rax
	movq	%rax, %rdi
	call	_ZNSolsEPFRSoS_E@PLT
	leaq	.LC21(%rip), %rax
	movq	%rax, %rsi
	leaq	_ZSt4cout(%rip), %rax
	movq	%rax, %rdi
	call	_ZStlsISt11char_traitsIcEERSt13basic_ostreamIcT_ES5_PKc@PLT
	movq	%rax, %rdx
	movl	-184(%rbp), %eax
	movl	%eax, %esi
	movq	%rdx, %rdi
	call	_ZNSolsEi@PLT
	movq	_ZSt4endlIcSt11char_traitsIcEERSt13basic_ostreamIT_T0_ES6_@GOTPCREL(%rip), %rdx
	movq	%rdx, %rsi
	movq	%rax, %rdi
	call	_ZNSolsEPFRSoS_E@PLT
	leaq	.LC22(%rip), %rax
	movq	%rax, %rsi
	leaq	_ZSt4cout(%rip), %rax
	movq	%rax, %rdi
	call	_ZStlsISt11char_traitsIcEERSt13basic_ostreamIcT_ES5_PKc@PLT
	movq	_ZSt4endlIcSt11char_traitsIcEERSt13basic_ostreamIT_T0_ES6_@GOTPCREL(%rip), %rdx
	movq	%rdx, %rsi
	movq	%rax, %rdi
	call	_ZNSolsEPFRSoS_E@PLT
	cmpl	$2, -184(%rbp)
	jne	.L118
	leaq	.LC23(%rip), %rax
	jmp	.L119
.L118:
	leaq	.LC24(%rip), %rax
.L119:
	movq	%rax, %rsi
	leaq	_ZSt4cout(%rip), %rax
	movq	%rax, %rdi
	call	_ZStlsISt11char_traitsIcEERSt13basic_ostreamIcT_ES5_PKc@PLT
	movq	_ZSt4endlIcSt11char_traitsIcEERSt13basic_ostreamIT_T0_ES6_@GOTPCREL(%rip), %rdx
	movq	%rdx, %rsi
	movq	%rax, %rdi
	call	_ZNSolsEPFRSoS_E@PLT
	movq	_ZSt4endlIcSt11char_traitsIcEERSt13basic_ostreamIT_T0_ES6_@GOTPCREL(%rip), %rax
	movq	%rax, %rsi
	leaq	_ZSt4cout(%rip), %rax
	movq	%rax, %rdi
	call	_ZNSolsEPFRSoS_E@PLT
	leaq	-144(%rbp), %rax
	movl	.LC4(%rip), %edx
	movd	%edx, %xmm0
	movq	%rax, %rdi
	call	_Z15countEqualItemsIfEiRKSt6vectorIT_SaIS1_EES1_
	movl	%eax, -180(%rbp)
	leaq	.LC25(%rip), %rax
	movq	%rax, %rsi
	leaq	_ZSt4cout(%rip), %rax
	movq	%rax, %rdi
	call	_ZStlsISt11char_traitsIcEERSt13basic_ostreamIcT_ES5_PKc@PLT
	movq	%rax, %rdx
	movl	-180(%rbp), %eax
	movl	%eax, %esi
	movq	%rdx, %rdi
	call	_ZNSolsEi@PLT
	movq	%rax, %rdx
	leaq	.LC26(%rip), %rax
	movq	%rax, %rsi
	movq	%rdx, %rdi
	call	_ZStlsISt11char_traitsIcEERSt13basic_ostreamIcT_ES5_PKc@PLT
	movq	_ZSt4endlIcSt11char_traitsIcEERSt13basic_ostreamIT_T0_ES6_@GOTPCREL(%rip), %rdx
	movq	%rdx, %rsi
	movq	%rax, %rdi
	call	_ZNSolsEPFRSoS_E@PLT
	cmpl	$1, -180(%rbp)
	jne	.L120
	leaq	.LC23(%rip), %rax
	jmp	.L121
.L120:
	leaq	.LC24(%rip), %rax
.L121:
	movq	%rax, %rsi
	leaq	_ZSt4cout(%rip), %rax
	movq	%rax, %rdi
	call	_ZStlsISt11char_traitsIcEERSt13basic_ostreamIcT_ES5_PKc@PLT
	movq	_ZSt4endlIcSt11char_traitsIcEERSt13basic_ostreamIT_T0_ES6_@GOTPCREL(%rip), %rdx
	movq	%rdx, %rsi
	movq	%rax, %rdi
	call	_ZNSolsEPFRSoS_E@PLT
	leaq	-144(%rbp), %rax
	movl	.LC27(%rip), %edx
	movd	%edx, %xmm0
	movq	%rax, %rdi
	call	_Z15countEqualItemsIfEiRKSt6vectorIT_SaIS1_EES1_
	movl	%eax, -176(%rbp)
	leaq	.LC28(%rip), %rax
	movq	%rax, %rsi
	leaq	_ZSt4cout(%rip), %rax
	movq	%rax, %rdi
	call	_ZStlsISt11char_traitsIcEERSt13basic_ostreamIcT_ES5_PKc@PLT
	movq	%rax, %rdx
	movl	-176(%rbp), %eax
	movl	%eax, %esi
	movq	%rdx, %rdi
	call	_ZNSolsEi@PLT
	movq	%rax, %rdx
	leaq	.LC29(%rip), %rax
	movq	%rax, %rsi
	movq	%rdx, %rdi
	call	_ZStlsISt11char_traitsIcEERSt13basic_ostreamIcT_ES5_PKc@PLT
	movq	_ZSt4endlIcSt11char_traitsIcEERSt13basic_ostreamIT_T0_ES6_@GOTPCREL(%rip), %rdx
	movq	%rdx, %rsi
	movq	%rax, %rdi
	call	_ZNSolsEPFRSoS_E@PLT
	cmpl	$0, -176(%rbp)
	jne	.L122
	leaq	.LC23(%rip), %rax
	jmp	.L123
.L122:
	leaq	.LC24(%rip), %rax
.L123:
	movq	%rax, %rsi
	leaq	_ZSt4cout(%rip), %rax
	movq	%rax, %rdi
	call	_ZStlsISt11char_traitsIcEERSt13basic_ostreamIcT_ES5_PKc@PLT
	movq	_ZSt4endlIcSt11char_traitsIcEERSt13basic_ostreamIT_T0_ES6_@GOTPCREL(%rip), %rdx
	movq	%rdx, %rsi
	movq	%rax, %rdi
	call	_ZNSolsEPFRSoS_E@PLT
	leaq	.LC30(%rip), %rax
	movq	%rax, %rsi
	leaq	_ZSt4cout(%rip), %rax
	movq	%rax, %rdi
	call	_ZStlsISt11char_traitsIcEERSt13basic_ostreamIcT_ES5_PKc@PLT
	movq	_ZSt4endlIcSt11char_traitsIcEERSt13basic_ostreamIT_T0_ES6_@GOTPCREL(%rip), %rdx
	movq	%rdx, %rsi
	movq	%rax, %rdi
	call	_ZNSolsEPFRSoS_E@PLT
	movl	$10, -80(%rbp)
	movl	$20, -76(%rbp)
	movl	$30, -72(%rbp)
	movl	$20, -68(%rbp)
	movl	$20, -64(%rbp)
	movl	$40, -60(%rbp)
	leaq	-80(%rbp), %rax
	movq	%rax, %r12
	movl	$6, %r13d
	leaq	-189(%rbp), %rax
	movq	%rax, -152(%rbp)
	nop
	nop
	leaq	-189(%rbp), %rdx
	movq	%r12, %rsi
	movq	%r13, %rdi
	movq	%r12, %rcx
	movq	%r13, %rbx
	movq	%rbx, %rdi
	leaq	-112(%rbp), %rax
	movq	%rdx, %rcx
	movq	%rdi, %rdx
	movq	%rax, %rdi
	call	_ZNSt6vectorIiSaIiEEC1ESt16initializer_listIiERKS0_
.LEHE5:
	nop
	leaq	.LC31(%rip), %rax
	movq	%rax, %rsi
	leaq	_ZSt4cout(%rip), %rax
	movq	%rax, %rdi
.LEHB6:
	call	_ZStlsISt11char_traitsIcEERSt13basic_ostreamIcT_ES5_PKc@PLT
	movq	_ZSt4endlIcSt11char_traitsIcEERSt13basic_ostreamIT_T0_ES6_@GOTPCREL(%rip), %rdx
	movq	%rdx, %rsi
	movq	%rax, %rdi
	call	_ZNSolsEPFRSoS_E@PLT
	leaq	-112(%rbp), %rax
	movl	$20, %esi
	movq	%rax, %rdi
	call	_Z15countEqualItemsIiEiRKSt6vectorIT_SaIS1_EES1_
	movl	%eax, -172(%rbp)
	leaq	.LC32(%rip), %rax
	movq	%rax, %rsi
	leaq	_ZSt4cout(%rip), %rax
	movq	%rax, %rdi
	call	_ZStlsISt11char_traitsIcEERSt13basic_ostreamIcT_ES5_PKc@PLT
	movq	%rax, %rdx
	movl	-172(%rbp), %eax
	movl	%eax, %esi
	movq	%rdx, %rdi
	call	_ZNSolsEi@PLT
	movq	%rax, %rdx
	leaq	.LC33(%rip), %rax
	movq	%rax, %rsi
	movq	%rdx, %rdi
	call	_ZStlsISt11char_traitsIcEERSt13basic_ostreamIcT_ES5_PKc@PLT
	movq	_ZSt4endlIcSt11char_traitsIcEERSt13basic_ostreamIT_T0_ES6_@GOTPCREL(%rip), %rdx
	movq	%rdx, %rsi
	movq	%rax, %rdi
	call	_ZNSolsEPFRSoS_E@PLT
	cmpl	$3, -172(%rbp)
	jne	.L124
	leaq	.LC23(%rip), %rax
	jmp	.L125
.L124:
	leaq	.LC24(%rip), %rax
.L125:
	movq	%rax, %rsi
	leaq	_ZSt4cout(%rip), %rax
	movq	%rax, %rdi
	call	_ZStlsISt11char_traitsIcEERSt13basic_ostreamIcT_ES5_PKc@PLT
	movq	_ZSt4endlIcSt11char_traitsIcEERSt13basic_ostreamIT_T0_ES6_@GOTPCREL(%rip), %rdx
	movq	%rdx, %rsi
	movq	%rax, %rdi
	call	_ZNSolsEPFRSoS_E@PLT
.LEHE6:
	movl	$0, %ebx
	leaq	-112(%rbp), %rax
	movq	%rax, %rdi
	call	_ZNSt6vectorIiSaIiEED1Ev
	leaq	-144(%rbp), %rax
	movq	%rax, %rdi
	call	_ZNSt6vectorIfSaIfEED1Ev
	movl	%ebx, %eax
	movq	-56(%rbp), %rdx
	subq	%fs:40, %rdx
	je	.L130
	jmp	.L137
.L132:
	endbr64
	movq	%rax, %rbx
	leaq	-112(%rbp), %rax
	movq	%rax, %rdi
	call	_ZNSt6vectorIiSaIiEED1Ev
	jmp	.L128
.L131:
	endbr64
	movq	%rax, %rbx
.L128:
	leaq	-144(%rbp), %rax
	movq	%rax, %rdi
	call	_ZNSt6vectorIfSaIfEED1Ev
	movq	%rbx, %rax
	movq	-56(%rbp), %rdx
	subq	%fs:40, %rdx
	je	.L129
	call	__stack_chk_fail@PLT
.L129:
	movq	%rax, %rdi
.LEHB7:
	call	_Unwind_Resume@PLT
.LEHE7:
.L137:
	call	__stack_chk_fail@PLT
.L130:
	addq	$152, %rsp
	popq	%rbx
	popq	%r12
	popq	%r13
	popq	%r14
	popq	%r15
	popq	%rbp
	.cfi_def_cfa 7, 8
	ret
	.cfi_endproc
.LFE2837:
	.section	.gcc_except_table,"a",@progbits
.LLSDA2837:
	.byte	0xff
	.byte	0xff
	.byte	0x1
	.uleb128 .LLSDACSE2837-.LLSDACSB2837
.LLSDACSB2837:
	.uleb128 .LEHB4-.LFB2837
	.uleb128 .LEHE4-.LEHB4
	.uleb128 0
	.uleb128 0
	.uleb128 .LEHB5-.LFB2837
	.uleb128 .LEHE5-.LEHB5
	.uleb128 .L131-.LFB2837
	.uleb128 0
	.uleb128 .LEHB6-.LFB2837
	.uleb128 .LEHE6-.LEHB6
	.uleb128 .L132-.LFB2837
	.uleb128 0
	.uleb128 .LEHB7-.LFB2837
	.uleb128 .LEHE7-.LEHB7
	.uleb128 0
	.uleb128 0
.LLSDACSE2837:
	.text
	.size	main, .-main
	.section	.text._ZNSt6vectorIfSaIfEED2Ev,"axG",@progbits,_ZNSt6vectorIfSaIfEED5Ev,comdat
	.align 2
	.weak	_ZNSt6vectorIfSaIfEED2Ev
	.type	_ZNSt6vectorIfSaIfEED2Ev, @function
_ZNSt6vectorIfSaIfEED2Ev:
.LFB3232:
	.cfi_startproc
	.cfi_personality 0x9b,DW.ref.__gxx_personality_v0
	.cfi_lsda 0x1b,.LLSDA3232
	endbr64
	pushq	%rbp
	.cfi_def_cfa_offset 16
	.cfi_offset 6, -16
	movq	%rsp, %rbp
	.cfi_def_cfa_register 6
	subq	$48, %rsp
	movq	%rdi, -40(%rbp)
	movq	-40(%rbp), %rax
	movq	%rax, %rdi
	call	_ZNSt12_Vector_baseIfSaIfEE19_M_get_Tp_allocatorEv
	movq	-40(%rbp), %rdx
	movq	8(%rdx), %rdx
	movq	-40(%rbp), %rcx
	movq	(%rcx), %rcx
	movq	%rcx, -24(%rbp)
	movq	%rdx, -16(%rbp)
	movq	%rax, -8(%rbp)
	movq	-16(%rbp), %rdx
	movq	-24(%rbp), %rax
	movq	%rdx, %rsi
	movq	%rax, %rdi
	call	_ZSt8_DestroyIPfEvT_S1_
	nop
	movq	-40(%rbp), %rax
	movq	%rax, %rdi
	call	_ZNSt12_Vector_baseIfSaIfEED2Ev
	nop
	leave
	.cfi_def_cfa 7, 8
	ret
	.cfi_endproc
.LFE3232:
	.section	.gcc_except_table
.LLSDA3232:
	.byte	0xff
	.byte	0xff
	.byte	0x1
	.uleb128 .LLSDACSE3232-.LLSDACSB3232
.LLSDACSB3232:
.LLSDACSE3232:
	.section	.text._ZNSt6vectorIfSaIfEED2Ev,"axG",@progbits,_ZNSt6vectorIfSaIfEED5Ev,comdat
	.size	_ZNSt6vectorIfSaIfEED2Ev, .-_ZNSt6vectorIfSaIfEED2Ev
	.weak	_ZNSt6vectorIfSaIfEED1Ev
	.set	_ZNSt6vectorIfSaIfEED1Ev,_ZNSt6vectorIfSaIfEED2Ev
	.section	.text._ZNSt12_Vector_baseIfSaIfEED2Ev,"axG",@progbits,_ZNSt12_Vector_baseIfSaIfEED5Ev,comdat
	.align 2
	.weak	_ZNSt12_Vector_baseIfSaIfEED2Ev
	.type	_ZNSt12_Vector_baseIfSaIfEED2Ev, @function
_ZNSt12_Vector_baseIfSaIfEED2Ev:
.LFB3235:
	.cfi_startproc
	.cfi_personality 0x9b,DW.ref.__gxx_personality_v0
	.cfi_lsda 0x1b,.LLSDA3235
	endbr64
	pushq	%rbp
	.cfi_def_cfa_offset 16
	.cfi_offset 6, -16
	movq	%rsp, %rbp
	.cfi_def_cfa_register 6
	subq	$16, %rsp
	movq	%rdi, -8(%rbp)
	movq	-8(%rbp), %rax
	movq	16(%rax), %rdx
	movq	-8(%rbp), %rax
	movq	(%rax), %rax
	subq	%rax, %rdx
	movq	%rdx, %rax
	sarq	$2, %rax
	movq	%rax, %rdx
	movq	-8(%rbp), %rax
	movq	(%rax), %rcx
	movq	-8(%rbp), %rax
	movq	%rcx, %rsi
	movq	%rax, %rdi
	call	_ZNSt12_Vector_baseIfSaIfEE13_M_deallocateEPfm
	movq	-8(%rbp), %rax
	movq	%rax, %rdi
	call	_ZNSt12_Vector_baseIfSaIfEE12_Vector_implD1Ev
	nop
	leave
	.cfi_def_cfa 7, 8
	ret
	.cfi_endproc
.LFE3235:
	.section	.gcc_except_table
.LLSDA3235:
	.byte	0xff
	.byte	0xff
	.byte	0x1
	.uleb128 .LLSDACSE3235-.LLSDACSB3235
.LLSDACSB3235:
.LLSDACSE3235:
	.section	.text._ZNSt12_Vector_baseIfSaIfEED2Ev,"axG",@progbits,_ZNSt12_Vector_baseIfSaIfEED5Ev,comdat
	.size	_ZNSt12_Vector_baseIfSaIfEED2Ev, .-_ZNSt12_Vector_baseIfSaIfEED2Ev
	.weak	_ZNSt12_Vector_baseIfSaIfEED1Ev
	.set	_ZNSt12_Vector_baseIfSaIfEED1Ev,_ZNSt12_Vector_baseIfSaIfEED2Ev
	.section	.text._ZSt22__uninitialized_copy_aIPKfPffET0_T_S4_S3_RSaIT1_E,"axG",@progbits,_ZSt22__uninitialized_copy_aIPKfPffET0_T_S4_S3_RSaIT1_E,comdat
	.weak	_ZSt22__uninitialized_copy_aIPKfPffET0_T_S4_S3_RSaIT1_E
	.type	_ZSt22__uninitialized_copy_aIPKfPffET0_T_S4_S3_RSaIT1_E, @function
_ZSt22__uninitialized_copy_aIPKfPffET0_T_S4_S3_RSaIT1_E:
.LFB3237:
	.cfi_startproc
	endbr64
	pushq	%rbp
	.cfi_def_cfa_offset 16
	.cfi_offset 6, -16
	movq	%rsp, %rbp
	.cfi_def_cfa_register 6
	subq	$32, %rsp
	movq	%rdi, -8(%rbp)
	movq	%rsi, -16(%rbp)
	movq	%rdx, -24(%rbp)
	movq	%rcx, -32(%rbp)
	call	_ZSt21is_constant_evaluatedv
	testb	%al, %al
	je	.L141
	movq	-24(%rbp), %rdx
	movq	-16(%rbp), %rcx
	movq	-8(%rbp), %rax
	movq	%rcx, %rsi
	movq	%rax, %rdi
	call	_ZSt16__do_uninit_copyIPKfPfET0_T_S4_S3_
	jmp	.L142
.L141:
	movq	-24(%rbp), %rdx
	movq	-16(%rbp), %rcx
	movq	-8(%rbp), %rax
	movq	%rcx, %rsi
	movq	%rax, %rdi
	call	_ZSt18uninitialized_copyIPKfPfET0_T_S4_S3_
	nop
.L142:
	leave
	.cfi_def_cfa 7, 8
	ret
	.cfi_endproc
.LFE3237:
	.size	_ZSt22__uninitialized_copy_aIPKfPffET0_T_S4_S3_RSaIT1_E, .-_ZSt22__uninitialized_copy_aIPKfPffET0_T_S4_S3_RSaIT1_E
	.section	.text._ZNSt15__new_allocatorIfE8allocateEmPKv,"axG",@progbits,_ZNSt15__new_allocatorIfE8allocateEmPKv,comdat
	.align 2
	.weak	_ZNSt15__new_allocatorIfE8allocateEmPKv
	.type	_ZNSt15__new_allocatorIfE8allocateEmPKv, @function
_ZNSt15__new_allocatorIfE8allocateEmPKv:
.LFB3238:
	.cfi_startproc
	endbr64
	pushq	%rbp
	.cfi_def_cfa_offset 16
	.cfi_offset 6, -16
	movq	%rsp, %rbp
	.cfi_def_cfa_register 6
	subq	$48, %rsp
	movq	%rdi, -24(%rbp)
	movq	%rsi, -32(%rbp)
	movq	%rdx, -40(%rbp)
	movq	-24(%rbp), %rax
	movq	%rax, -8(%rbp)
	movabsq	$2305843009213693951, %rax
	cmpq	-32(%rbp), %rax
	setb	%al
	movzbl	%al, %eax
	testq	%rax, %rax
	setne	%al
	testb	%al, %al
	je	.L145
	movabsq	$4611686018427387903, %rax
	cmpq	-32(%rbp), %rax
	jnb	.L146
	call	_ZSt28__throw_bad_array_new_lengthv@PLT
.L146:
	call	_ZSt17__throw_bad_allocv@PLT
.L145:
	movq	-32(%rbp), %rax
	salq	$2, %rax
	movq	%rax, %rdi
	call	_Znwm@PLT
	nop
	leave
	.cfi_def_cfa 7, 8
	ret
	.cfi_endproc
.LFE3238:
	.size	_ZNSt15__new_allocatorIfE8allocateEmPKv, .-_ZNSt15__new_allocatorIfE8allocateEmPKv
	.section	.text._Z15countEqualItemsIfEiRKSt6vectorIT_SaIS1_EES1_,"axG",@progbits,_Z15countEqualItemsIfEiRKSt6vectorIT_SaIS1_EES1_,comdat
	.weak	_Z15countEqualItemsIfEiRKSt6vectorIT_SaIS1_EES1_
	.type	_Z15countEqualItemsIfEiRKSt6vectorIT_SaIS1_EES1_, @function
_Z15countEqualItemsIfEiRKSt6vectorIT_SaIS1_EES1_:
.LFB3241:
	.cfi_startproc
	endbr64
	pushq	%rbp
	.cfi_def_cfa_offset 16
	.cfi_offset 6, -16
	movq	%rsp, %rbp
	.cfi_def_cfa_register 6
	subq	$32, %rsp
	movq	%rdi, -24(%rbp)
	movss	%xmm0, -28(%rbp)
	movl	$0, -12(%rbp)
	movq	$0, -8(%rbp)
	jmp	.L149
.L151:
	movq	-8(%rbp), %rdx
	movq	-24(%rbp), %rax
	movq	%rdx, %rsi
	movq	%rax, %rdi
	call	_ZNKSt6vectorIfSaIfEEixEm
	movss	(%rax), %xmm0
	ucomiss	-28(%rbp), %xmm0
	setnp	%al
	movl	$0, %edx
	ucomiss	-28(%rbp), %xmm0
	cmovne	%edx, %eax
	testb	%al, %al
	je	.L150
	addl	$1, -12(%rbp)
.L150:
	addq	$1, -8(%rbp)
.L149:
	movq	-24(%rbp), %rax
	movq	%rax, %rdi
	call	_ZNKSt6vectorIfSaIfEE4sizeEv
	cmpq	%rax, -8(%rbp)
	setb	%al
	testb	%al, %al
	jne	.L151
	movl	-12(%rbp), %eax
	leave
	.cfi_def_cfa 7, 8
	ret
	.cfi_endproc
.LFE3241:
	.size	_Z15countEqualItemsIfEiRKSt6vectorIT_SaIS1_EES1_, .-_Z15countEqualItemsIfEiRKSt6vectorIT_SaIS1_EES1_
	.section	.text._ZNSt6vectorIiSaIiEED2Ev,"axG",@progbits,_ZNSt6vectorIiSaIiEED5Ev,comdat
	.align 2
	.weak	_ZNSt6vectorIiSaIiEED2Ev
	.type	_ZNSt6vectorIiSaIiEED2Ev, @function
_ZNSt6vectorIiSaIiEED2Ev:
.LFB3243:
	.cfi_startproc
	.cfi_personality 0x9b,DW.ref.__gxx_personality_v0
	.cfi_lsda 0x1b,.LLSDA3243
	endbr64
	pushq	%rbp
	.cfi_def_cfa_offset 16
	.cfi_offset 6, -16
	movq	%rsp, %rbp
	.cfi_def_cfa_register 6
	subq	$48, %rsp
	movq	%rdi, -40(%rbp)
	movq	-40(%rbp), %rax
	movq	%rax, %rdi
	call	_ZNSt12_Vector_baseIiSaIiEE19_M_get_Tp_allocatorEv
	movq	-40(%rbp), %rdx
	movq	8(%rdx), %rdx
	movq	-40(%rbp), %rcx
	movq	(%rcx), %rcx
	movq	%rcx, -24(%rbp)
	movq	%rdx, -16(%rbp)
	movq	%rax, -8(%rbp)
	movq	-16(%rbp), %rdx
	movq	-24(%rbp), %rax
	movq	%rdx, %rsi
	movq	%rax, %rdi
	call	_ZSt8_DestroyIPiEvT_S1_
	nop
	movq	-40(%rbp), %rax
	movq	%rax, %rdi
	call	_ZNSt12_Vector_baseIiSaIiEED2Ev
	nop
	leave
	.cfi_def_cfa 7, 8
	ret
	.cfi_endproc
.LFE3243:
	.section	.gcc_except_table
.LLSDA3243:
	.byte	0xff
	.byte	0xff
	.byte	0x1
	.uleb128 .LLSDACSE3243-.LLSDACSB3243
.LLSDACSB3243:
.LLSDACSE3243:
	.section	.text._ZNSt6vectorIiSaIiEED2Ev,"axG",@progbits,_ZNSt6vectorIiSaIiEED5Ev,comdat
	.size	_ZNSt6vectorIiSaIiEED2Ev, .-_ZNSt6vectorIiSaIiEED2Ev
	.weak	_ZNSt6vectorIiSaIiEED1Ev
	.set	_ZNSt6vectorIiSaIiEED1Ev,_ZNSt6vectorIiSaIiEED2Ev
	.section	.text._ZNSt12_Vector_baseIiSaIiEED2Ev,"axG",@progbits,_ZNSt12_Vector_baseIiSaIiEED5Ev,comdat
	.align 2
	.weak	_ZNSt12_Vector_baseIiSaIiEED2Ev
	.type	_ZNSt12_Vector_baseIiSaIiEED2Ev, @function
_ZNSt12_Vector_baseIiSaIiEED2Ev:
.LFB3246:
	.cfi_startproc
	.cfi_personality 0x9b,DW.ref.__gxx_personality_v0
	.cfi_lsda 0x1b,.LLSDA3246
	endbr64
	pushq	%rbp
	.cfi_def_cfa_offset 16
	.cfi_offset 6, -16
	movq	%rsp, %rbp
	.cfi_def_cfa_register 6
	subq	$16, %rsp
	movq	%rdi, -8(%rbp)
	movq	-8(%rbp), %rax
	movq	16(%rax), %rdx
	movq	-8(%rbp), %rax
	movq	(%rax), %rax
	subq	%rax, %rdx
	movq	%rdx, %rax
	sarq	$2, %rax
	movq	%rax, %rdx
	movq	-8(%rbp), %rax
	movq	(%rax), %rcx
	movq	-8(%rbp), %rax
	movq	%rcx, %rsi
	movq	%rax, %rdi
	call	_ZNSt12_Vector_baseIiSaIiEE13_M_deallocateEPim
	movq	-8(%rbp), %rax
	movq	%rax, %rdi
	call	_ZNSt12_Vector_baseIiSaIiEE12_Vector_implD1Ev
	nop
	leave
	.cfi_def_cfa 7, 8
	ret
	.cfi_endproc
.LFE3246:
	.section	.gcc_except_table
.LLSDA3246:
	.byte	0xff
	.byte	0xff
	.byte	0x1
	.uleb128 .LLSDACSE3246-.LLSDACSB3246
.LLSDACSB3246:
.LLSDACSE3246:
	.section	.text._ZNSt12_Vector_baseIiSaIiEED2Ev,"axG",@progbits,_ZNSt12_Vector_baseIiSaIiEED5Ev,comdat
	.size	_ZNSt12_Vector_baseIiSaIiEED2Ev, .-_ZNSt12_Vector_baseIiSaIiEED2Ev
	.weak	_ZNSt12_Vector_baseIiSaIiEED1Ev
	.set	_ZNSt12_Vector_baseIiSaIiEED1Ev,_ZNSt12_Vector_baseIiSaIiEED2Ev
	.section	.text._ZSt22__uninitialized_copy_aIPKiPiiET0_T_S4_S3_RSaIT1_E,"axG",@progbits,_ZSt22__uninitialized_copy_aIPKiPiiET0_T_S4_S3_RSaIT1_E,comdat
	.weak	_ZSt22__uninitialized_copy_aIPKiPiiET0_T_S4_S3_RSaIT1_E
	.type	_ZSt22__uninitialized_copy_aIPKiPiiET0_T_S4_S3_RSaIT1_E, @function
_ZSt22__uninitialized_copy_aIPKiPiiET0_T_S4_S3_RSaIT1_E:
.LFB3248:
	.cfi_startproc
	endbr64
	pushq	%rbp
	.cfi_def_cfa_offset 16
	.cfi_offset 6, -16
	movq	%rsp, %rbp
	.cfi_def_cfa_register 6
	subq	$32, %rsp
	movq	%rdi, -8(%rbp)
	movq	%rsi, -16(%rbp)
	movq	%rdx, -24(%rbp)
	movq	%rcx, -32(%rbp)
	call	_ZSt21is_constant_evaluatedv
	testb	%al, %al
	je	.L156
	movq	-24(%rbp), %rdx
	movq	-16(%rbp), %rcx
	movq	-8(%rbp), %rax
	movq	%rcx, %rsi
	movq	%rax, %rdi
	call	_ZSt16__do_uninit_copyIPKiPiET0_T_S4_S3_
	jmp	.L157
.L156:
	movq	-24(%rbp), %rdx
	movq	-16(%rbp), %rcx
	movq	-8(%rbp), %rax
	movq	%rcx, %rsi
	movq	%rax, %rdi
	call	_ZSt18uninitialized_copyIPKiPiET0_T_S4_S3_
	nop
.L157:
	leave
	.cfi_def_cfa 7, 8
	ret
	.cfi_endproc
.LFE3248:
	.size	_ZSt22__uninitialized_copy_aIPKiPiiET0_T_S4_S3_RSaIT1_E, .-_ZSt22__uninitialized_copy_aIPKiPiiET0_T_S4_S3_RSaIT1_E
	.section	.text._ZNSt15__new_allocatorIiE8allocateEmPKv,"axG",@progbits,_ZNSt15__new_allocatorIiE8allocateEmPKv,comdat
	.align 2
	.weak	_ZNSt15__new_allocatorIiE8allocateEmPKv
	.type	_ZNSt15__new_allocatorIiE8allocateEmPKv, @function
_ZNSt15__new_allocatorIiE8allocateEmPKv:
.LFB3249:
	.cfi_startproc
	endbr64
	pushq	%rbp
	.cfi_def_cfa_offset 16
	.cfi_offset 6, -16
	movq	%rsp, %rbp
	.cfi_def_cfa_register 6
	subq	$48, %rsp
	movq	%rdi, -24(%rbp)
	movq	%rsi, -32(%rbp)
	movq	%rdx, -40(%rbp)
	movq	-24(%rbp), %rax
	movq	%rax, -8(%rbp)
	movabsq	$2305843009213693951, %rax
	cmpq	-32(%rbp), %rax
	setb	%al
	movzbl	%al, %eax
	testq	%rax, %rax
	setne	%al
	testb	%al, %al
	je	.L160
	movabsq	$4611686018427387903, %rax
	cmpq	-32(%rbp), %rax
	jnb	.L161
	call	_ZSt28__throw_bad_array_new_lengthv@PLT
.L161:
	call	_ZSt17__throw_bad_allocv@PLT
.L160:
	movq	-32(%rbp), %rax
	salq	$2, %rax
	movq	%rax, %rdi
	call	_Znwm@PLT
	nop
	leave
	.cfi_def_cfa 7, 8
	ret
	.cfi_endproc
.LFE3249:
	.size	_ZNSt15__new_allocatorIiE8allocateEmPKv, .-_ZNSt15__new_allocatorIiE8allocateEmPKv
	.section	.text._Z15countEqualItemsIiEiRKSt6vectorIT_SaIS1_EES1_,"axG",@progbits,_Z15countEqualItemsIiEiRKSt6vectorIT_SaIS1_EES1_,comdat
	.weak	_Z15countEqualItemsIiEiRKSt6vectorIT_SaIS1_EES1_
	.type	_Z15countEqualItemsIiEiRKSt6vectorIT_SaIS1_EES1_, @function
_Z15countEqualItemsIiEiRKSt6vectorIT_SaIS1_EES1_:
.LFB3250:
	.cfi_startproc
	endbr64
	pushq	%rbp
	.cfi_def_cfa_offset 16
	.cfi_offset 6, -16
	movq	%rsp, %rbp
	.cfi_def_cfa_register 6
	subq	$32, %rsp
	movq	%rdi, -24(%rbp)
	movl	%esi, -28(%rbp)
	movl	$0, -12(%rbp)
	movq	$0, -8(%rbp)
	jmp	.L164
.L166:
	movq	-8(%rbp), %rdx
	movq	-24(%rbp), %rax
	movq	%rdx, %rsi
	movq	%rax, %rdi
	call	_ZNKSt6vectorIiSaIiEEixEm
	movl	(%rax), %eax
	cmpl	%eax, -28(%rbp)
	sete	%al
	testb	%al, %al
	je	.L165
	addl	$1, -12(%rbp)
.L165:
	addq	$1, -8(%rbp)
.L164:
	movq	-24(%rbp), %rax
	movq	%rax, %rdi
	call	_ZNKSt6vectorIiSaIiEE4sizeEv
	cmpq	%rax, -8(%rbp)
	setb	%al
	testb	%al, %al
	jne	.L166
	movl	-12(%rbp), %eax
	leave
	.cfi_def_cfa 7, 8
	ret
	.cfi_endproc
.LFE3250:
	.size	_Z15countEqualItemsIiEiRKSt6vectorIT_SaIS1_EES1_, .-_Z15countEqualItemsIiEiRKSt6vectorIT_SaIS1_EES1_
	.section	.text._ZNSt12_Vector_baseIfSaIfEE13_M_deallocateEPfm,"axG",@progbits,_ZNSt12_Vector_baseIfSaIfEE13_M_deallocateEPfm,comdat
	.align 2
	.weak	_ZNSt12_Vector_baseIfSaIfEE13_M_deallocateEPfm
	.type	_ZNSt12_Vector_baseIfSaIfEE13_M_deallocateEPfm, @function
_ZNSt12_Vector_baseIfSaIfEE13_M_deallocateEPfm:
.LFB3373:
	.cfi_startproc
	endbr64
	pushq	%rbp
	.cfi_def_cfa_offset 16
	.cfi_offset 6, -16
	movq	%rsp, %rbp
	.cfi_def_cfa_register 6
	subq	$80, %rsp
	movq	%rdi, -56(%rbp)
	movq	%rsi, -64(%rbp)
	movq	%rdx, -72(%rbp)
	cmpq	$0, -64(%rbp)
	je	.L172
	movq	-56(%rbp), %rax
	movq	%rax, -48(%rbp)
	movq	-64(%rbp), %rax
	movq	%rax, -40(%rbp)
	movq	-72(%rbp), %rax
	movq	%rax, -32(%rbp)
	movq	-48(%rbp), %rax
	movq	%rax, -24(%rbp)
	movq	-40(%rbp), %rax
	movq	%rax, -16(%rbp)
	movq	-32(%rbp), %rax
	movq	%rax, -8(%rbp)
	call	_ZSt23__is_constant_evaluatedv
	testb	%al, %al
	je	.L170
	movq	-16(%rbp), %rax
	movq	%rax, %rdi
	call	_ZdlPv@PLT
	jmp	.L171
.L170:
	movq	-8(%rbp), %rdx
	movq	-16(%rbp), %rcx
	movq	-24(%rbp), %rax
	movq	%rcx, %rsi
	movq	%rax, %rdi
	call	_ZNSt15__new_allocatorIfE10deallocateEPfm
.L171:
	nop
.L172:
	nop
	leave
	.cfi_def_cfa 7, 8
	ret
	.cfi_endproc
.LFE3373:
	.size	_ZNSt12_Vector_baseIfSaIfEE13_M_deallocateEPfm, .-_ZNSt12_Vector_baseIfSaIfEE13_M_deallocateEPfm
	.section	.text._ZSt16__do_uninit_copyIPKfPfET0_T_S4_S3_,"axG",@progbits,_ZSt16__do_uninit_copyIPKfPfET0_T_S4_S3_,comdat
	.weak	_ZSt16__do_uninit_copyIPKfPfET0_T_S4_S3_
	.type	_ZSt16__do_uninit_copyIPKfPfET0_T_S4_S3_, @function
_ZSt16__do_uninit_copyIPKfPfET0_T_S4_S3_:
.LFB3374:
	.cfi_startproc
	endbr64
	pushq	%rbp
	.cfi_def_cfa_offset 16
	.cfi_offset 6, -16
	movq	%rsp, %rbp
	.cfi_def_cfa_register 6
	subq	$48, %rsp
	movq	%rdi, -24(%rbp)
	movq	%rsi, -32(%rbp)
	movq	%rdx, -40(%rbp)
	movq	-40(%rbp), %rax
	movq	%rax, -8(%rbp)
	jmp	.L174
.L175:
	movq	-8(%rbp), %rax
	movq	%rax, %rdi
	call	_ZSt11__addressofIfEPT_RS0_
	movq	%rax, %rdx
	movq	-24(%rbp), %rax
	movq	%rax, %rsi
	movq	%rdx, %rdi
	call	_ZSt10_ConstructIfJRKfEEvPT_DpOT0_
	addq	$4, -24(%rbp)
	addq	$4, -8(%rbp)
.L174:
	movq	-24(%rbp), %rax
	cmpq	-32(%rbp), %rax
	jne	.L175
	movq	-8(%rbp), %rax
	leave
	.cfi_def_cfa 7, 8
	ret
	.cfi_endproc
.LFE3374:
	.size	_ZSt16__do_uninit_copyIPKfPfET0_T_S4_S3_, .-_ZSt16__do_uninit_copyIPKfPfET0_T_S4_S3_
	.section	.text._ZSt18uninitialized_copyIPKfPfET0_T_S4_S3_,"axG",@progbits,_ZSt18uninitialized_copyIPKfPfET0_T_S4_S3_,comdat
	.weak	_ZSt18uninitialized_copyIPKfPfET0_T_S4_S3_
	.type	_ZSt18uninitialized_copyIPKfPfET0_T_S4_S3_, @function
_ZSt18uninitialized_copyIPKfPfET0_T_S4_S3_:
.LFB3375:
	.cfi_startproc
	endbr64
	pushq	%rbp
	.cfi_def_cfa_offset 16
	.cfi_offset 6, -16
	movq	%rsp, %rbp
	.cfi_def_cfa_register 6
	subq	$48, %rsp
	movq	%rdi, -24(%rbp)
	movq	%rsi, -32(%rbp)
	movq	%rdx, -40(%rbp)
	movb	$1, -2(%rbp)
	movb	$1, -1(%rbp)
	movq	-40(%rbp), %rdx
	movq	-32(%rbp), %rcx
	movq	-24(%rbp), %rax
	movq	%rcx, %rsi
	movq	%rax, %rdi
	call	_ZNSt20__uninitialized_copyILb1EE13__uninit_copyIPKfPfEET0_T_S6_S5_
	leave
	.cfi_def_cfa 7, 8
	ret
	.cfi_endproc
.LFE3375:
	.size	_ZSt18uninitialized_copyIPKfPfET0_T_S4_S3_, .-_ZSt18uninitialized_copyIPKfPfET0_T_S4_S3_
	.section	.text._ZNKSt6vectorIfSaIfEEixEm,"axG",@progbits,_ZNKSt6vectorIfSaIfEEixEm,comdat
	.align 2
	.weak	_ZNKSt6vectorIfSaIfEEixEm
	.type	_ZNKSt6vectorIfSaIfEEixEm, @function
_ZNKSt6vectorIfSaIfEEixEm:
.LFB3379:
	.cfi_startproc
	endbr64
	pushq	%rbp
	.cfi_def_cfa_offset 16
	.cfi_offset 6, -16
	movq	%rsp, %rbp
	.cfi_def_cfa_register 6
	movq	%rdi, -8(%rbp)
	movq	%rsi, -16(%rbp)
	movq	-8(%rbp), %rax
	movq	(%rax), %rax
	movq	-16(%rbp), %rdx
	salq	$2, %rdx
	addq	%rdx, %rax
	popq	%rbp
	.cfi_def_cfa 7, 8
	ret
	.cfi_endproc
.LFE3379:
	.size	_ZNKSt6vectorIfSaIfEEixEm, .-_ZNKSt6vectorIfSaIfEEixEm
	.section	.text._ZNSt12_Vector_baseIiSaIiEE13_M_deallocateEPim,"axG",@progbits,_ZNSt12_Vector_baseIiSaIiEE13_M_deallocateEPim,comdat
	.align 2
	.weak	_ZNSt12_Vector_baseIiSaIiEE13_M_deallocateEPim
	.type	_ZNSt12_Vector_baseIiSaIiEE13_M_deallocateEPim, @function
_ZNSt12_Vector_baseIiSaIiEE13_M_deallocateEPim:
.LFB3381:
	.cfi_startproc
	endbr64
	pushq	%rbp
	.cfi_def_cfa_offset 16
	.cfi_offset 6, -16
	movq	%rsp, %rbp
	.cfi_def_cfa_register 6
	subq	$80, %rsp
	movq	%rdi, -56(%rbp)
	movq	%rsi, -64(%rbp)
	movq	%rdx, -72(%rbp)
	cmpq	$0, -64(%rbp)
	je	.L185
	movq	-56(%rbp), %rax
	movq	%rax, -48(%rbp)
	movq	-64(%rbp), %rax
	movq	%rax, -40(%rbp)
	movq	-72(%rbp), %rax
	movq	%rax, -32(%rbp)
	movq	-48(%rbp), %rax
	movq	%rax, -24(%rbp)
	movq	-40(%rbp), %rax
	movq	%rax, -16(%rbp)
	movq	-32(%rbp), %rax
	movq	%rax, -8(%rbp)
	call	_ZSt23__is_constant_evaluatedv
	testb	%al, %al
	je	.L183
	movq	-16(%rbp), %rax
	movq	%rax, %rdi
	call	_ZdlPv@PLT
	jmp	.L184
.L183:
	movq	-8(%rbp), %rdx
	movq	-16(%rbp), %rcx
	movq	-24(%rbp), %rax
	movq	%rcx, %rsi
	movq	%rax, %rdi
	call	_ZNSt15__new_allocatorIiE10deallocateEPim
.L184:
	nop
.L185:
	nop
	leave
	.cfi_def_cfa 7, 8
	ret
	.cfi_endproc
.LFE3381:
	.size	_ZNSt12_Vector_baseIiSaIiEE13_M_deallocateEPim, .-_ZNSt12_Vector_baseIiSaIiEE13_M_deallocateEPim
	.section	.text._ZSt16__do_uninit_copyIPKiPiET0_T_S4_S3_,"axG",@progbits,_ZSt16__do_uninit_copyIPKiPiET0_T_S4_S3_,comdat
	.weak	_ZSt16__do_uninit_copyIPKiPiET0_T_S4_S3_
	.type	_ZSt16__do_uninit_copyIPKiPiET0_T_S4_S3_, @function
_ZSt16__do_uninit_copyIPKiPiET0_T_S4_S3_:
.LFB3382:
	.cfi_startproc
	endbr64
	pushq	%rbp
	.cfi_def_cfa_offset 16
	.cfi_offset 6, -16
	movq	%rsp, %rbp
	.cfi_def_cfa_register 6
	subq	$48, %rsp
	movq	%rdi, -24(%rbp)
	movq	%rsi, -32(%rbp)
	movq	%rdx, -40(%rbp)
	movq	-40(%rbp), %rax
	movq	%rax, -8(%rbp)
	jmp	.L187
.L188:
	movq	-8(%rbp), %rax
	movq	%rax, %rdi
	call	_ZSt11__addressofIiEPT_RS0_
	movq	%rax, %rdx
	movq	-24(%rbp), %rax
	movq	%rax, %rsi
	movq	%rdx, %rdi
	call	_ZSt10_ConstructIiJRKiEEvPT_DpOT0_
	addq	$4, -24(%rbp)
	addq	$4, -8(%rbp)
.L187:
	movq	-24(%rbp), %rax
	cmpq	-32(%rbp), %rax
	jne	.L188
	movq	-8(%rbp), %rax
	leave
	.cfi_def_cfa 7, 8
	ret
	.cfi_endproc
.LFE3382:
	.size	_ZSt16__do_uninit_copyIPKiPiET0_T_S4_S3_, .-_ZSt16__do_uninit_copyIPKiPiET0_T_S4_S3_
	.section	.text._ZSt18uninitialized_copyIPKiPiET0_T_S4_S3_,"axG",@progbits,_ZSt18uninitialized_copyIPKiPiET0_T_S4_S3_,comdat
	.weak	_ZSt18uninitialized_copyIPKiPiET0_T_S4_S3_
	.type	_ZSt18uninitialized_copyIPKiPiET0_T_S4_S3_, @function
_ZSt18uninitialized_copyIPKiPiET0_T_S4_S3_:
.LFB3383:
	.cfi_startproc
	endbr64
	pushq	%rbp
	.cfi_def_cfa_offset 16
	.cfi_offset 6, -16
	movq	%rsp, %rbp
	.cfi_def_cfa_register 6
	subq	$48, %rsp
	movq	%rdi, -24(%rbp)
	movq	%rsi, -32(%rbp)
	movq	%rdx, -40(%rbp)
	movb	$1, -2(%rbp)
	movb	$1, -1(%rbp)
	movq	-40(%rbp), %rdx
	movq	-32(%rbp), %rcx
	movq	-24(%rbp), %rax
	movq	%rcx, %rsi
	movq	%rax, %rdi
	call	_ZNSt20__uninitialized_copyILb1EE13__uninit_copyIPKiPiEET0_T_S6_S5_
	leave
	.cfi_def_cfa 7, 8
	ret
	.cfi_endproc
.LFE3383:
	.size	_ZSt18uninitialized_copyIPKiPiET0_T_S4_S3_, .-_ZSt18uninitialized_copyIPKiPiET0_T_S4_S3_
	.section	.text._ZNKSt6vectorIiSaIiEE4sizeEv,"axG",@progbits,_ZNKSt6vectorIiSaIiEE4sizeEv,comdat
	.align 2
	.weak	_ZNKSt6vectorIiSaIiEE4sizeEv
	.type	_ZNKSt6vectorIiSaIiEE4sizeEv, @function
_ZNKSt6vectorIiSaIiEE4sizeEv:
.LFB3387:
	.cfi_startproc
	endbr64
	pushq	%rbp
	.cfi_def_cfa_offset 16
	.cfi_offset 6, -16
	movq	%rsp, %rbp
	.cfi_def_cfa_register 6
	movq	%rdi, -8(%rbp)
	movq	-8(%rbp), %rax
	movq	8(%rax), %rdx
	movq	-8(%rbp), %rax
	movq	(%rax), %rax
	subq	%rax, %rdx
	movq	%rdx, %rax
	sarq	$2, %rax
	popq	%rbp
	.cfi_def_cfa 7, 8
	ret
	.cfi_endproc
.LFE3387:
	.size	_ZNKSt6vectorIiSaIiEE4sizeEv, .-_ZNKSt6vectorIiSaIiEE4sizeEv
	.section	.text._ZNKSt6vectorIiSaIiEEixEm,"axG",@progbits,_ZNKSt6vectorIiSaIiEEixEm,comdat
	.align 2
	.weak	_ZNKSt6vectorIiSaIiEEixEm
	.type	_ZNKSt6vectorIiSaIiEEixEm, @function
_ZNKSt6vectorIiSaIiEEixEm:
.LFB3388:
	.cfi_startproc
	endbr64
	pushq	%rbp
	.cfi_def_cfa_offset 16
	.cfi_offset 6, -16
	movq	%rsp, %rbp
	.cfi_def_cfa_register 6
	movq	%rdi, -8(%rbp)
	movq	%rsi, -16(%rbp)
	movq	-8(%rbp), %rax
	movq	(%rax), %rax
	movq	-16(%rbp), %rdx
	salq	$2, %rdx
	addq	%rdx, %rax
	popq	%rbp
	.cfi_def_cfa 7, 8
	ret
	.cfi_endproc
.LFE3388:
	.size	_ZNKSt6vectorIiSaIiEEixEm, .-_ZNKSt6vectorIiSaIiEEixEm
	.section	.text._ZSt8_DestroyIPfEvT_S1_,"axG",@progbits,_ZSt8_DestroyIPfEvT_S1_,comdat
	.weak	_ZSt8_DestroyIPfEvT_S1_
	.type	_ZSt8_DestroyIPfEvT_S1_, @function
_ZSt8_DestroyIPfEvT_S1_:
.LFB3476:
	.cfi_startproc
	endbr64
	pushq	%rbp
	.cfi_def_cfa_offset 16
	.cfi_offset 6, -16
	movq	%rsp, %rbp
	.cfi_def_cfa_register 6
	subq	$16, %rsp
	movq	%rdi, -8(%rbp)
	movq	%rsi, -16(%rbp)
	call	_ZSt23__is_constant_evaluatedv
	testb	%al, %al
	je	.L197
	movq	-16(%rbp), %rdx
	movq	-8(%rbp), %rax
	movq	%rdx, %rsi
	movq	%rax, %rdi
	call	_ZNSt12_Destroy_auxILb0EE9__destroyIPfEEvT_S3_
	jmp	.L196
.L197:
	movq	-16(%rbp), %rdx
	movq	-8(%rbp), %rax
	movq	%rdx, %rsi
	movq	%rax, %rdi
	call	_ZNSt12_Destroy_auxILb1EE9__destroyIPfEEvT_S3_
.L196:
	leave
	.cfi_def_cfa 7, 8
	ret
	.cfi_endproc
.LFE3476:
	.size	_ZSt8_DestroyIPfEvT_S1_, .-_ZSt8_DestroyIPfEvT_S1_
	.section	.text._ZSt11__addressofIfEPT_RS0_,"axG",@progbits,_ZSt11__addressofIfEPT_RS0_,comdat
	.weak	_ZSt11__addressofIfEPT_RS0_
	.type	_ZSt11__addressofIfEPT_RS0_, @function
_ZSt11__addressofIfEPT_RS0_:
.LFB3478:
	.cfi_startproc
	endbr64
	pushq	%rbp
	.cfi_def_cfa_offset 16
	.cfi_offset 6, -16
	movq	%rsp, %rbp
	.cfi_def_cfa_register 6
	movq	%rdi, -8(%rbp)
	movq	-8(%rbp), %rax
	popq	%rbp
	.cfi_def_cfa 7, 8
	ret
	.cfi_endproc
.LFE3478:
	.size	_ZSt11__addressofIfEPT_RS0_, .-_ZSt11__addressofIfEPT_RS0_
	.section	.text._ZSt10_ConstructIfJRKfEEvPT_DpOT0_,"axG",@progbits,_ZSt10_ConstructIfJRKfEEvPT_DpOT0_,comdat
	.weak	_ZSt10_ConstructIfJRKfEEvPT_DpOT0_
	.type	_ZSt10_ConstructIfJRKfEEvPT_DpOT0_, @function
_ZSt10_ConstructIfJRKfEEvPT_DpOT0_:
.LFB3479:
	.cfi_startproc
	endbr64
	pushq	%rbp
	.cfi_def_cfa_offset 16
	.cfi_offset 6, -16
	movq	%rsp, %rbp
	.cfi_def_cfa_register 6
	pushq	%rbx
	subq	$24, %rsp
	.cfi_offset 3, -24
	movq	%rdi, -24(%rbp)
	movq	%rsi, -32(%rbp)
	call	_ZSt23__is_constant_evaluatedv
	testb	%al, %al
	je	.L202
	movq	-32(%rbp), %rax
	movq	%rax, %rdi
	call	_ZSt7forwardIRKfEOT_RNSt16remove_referenceIS2_E4typeE
	movq	%rax, %rdx
	movq	-24(%rbp), %rax
	movq	%rdx, %rsi
	movq	%rax, %rdi
	call	_ZSt12construct_atIfJRKfEEDTgsnwcvPvLi0E_T_pispcl7declvalIT0_EEEEPS3_DpOS4_
	jmp	.L201
.L202:
	movq	-24(%rbp), %rax
	movq	%rax, %rsi
	movl	$4, %edi
	call	_ZnwmPv
	movq	%rax, %rbx
	movq	-32(%rbp), %rax
	movq	%rax, %rdi
	call	_ZSt7forwardIRKfEOT_RNSt16remove_referenceIS2_E4typeE
	movss	(%rax), %xmm0
	movss	%xmm0, (%rbx)
.L201:
	movq	-8(%rbp), %rbx
	leave
	.cfi_def_cfa 7, 8
	ret
	.cfi_endproc
.LFE3479:
	.size	_ZSt10_ConstructIfJRKfEEvPT_DpOT0_, .-_ZSt10_ConstructIfJRKfEEvPT_DpOT0_
	.section	.text._ZNSt20__uninitialized_copyILb1EE13__uninit_copyIPKfPfEET0_T_S6_S5_,"axG",@progbits,_ZNSt20__uninitialized_copyILb1EE13__uninit_copyIPKfPfEET0_T_S6_S5_,comdat
	.weak	_ZNSt20__uninitialized_copyILb1EE13__uninit_copyIPKfPfEET0_T_S6_S5_
	.type	_ZNSt20__uninitialized_copyILb1EE13__uninit_copyIPKfPfEET0_T_S6_S5_, @function
_ZNSt20__uninitialized_copyILb1EE13__uninit_copyIPKfPfEET0_T_S6_S5_:
.LFB3480:
	.cfi_startproc
	endbr64
	pushq	%rbp
	.cfi_def_cfa_offset 16
	.cfi_offset 6, -16
	movq	%rsp, %rbp
	.cfi_def_cfa_register 6
	subq	$32, %rsp
	movq	%rdi, -8(%rbp)
	movq	%rsi, -16(%rbp)
	movq	%rdx, -24(%rbp)
	movq	-24(%rbp), %rdx
	movq	-16(%rbp), %rcx
	movq	-8(%rbp), %rax
	movq	%rcx, %rsi
	movq	%rax, %rdi
	call	_ZSt4copyIPKfPfET0_T_S4_S3_
	leave
	.cfi_def_cfa 7, 8
	ret
	.cfi_endproc
.LFE3480:
	.size	_ZNSt20__uninitialized_copyILb1EE13__uninit_copyIPKfPfEET0_T_S6_S5_, .-_ZNSt20__uninitialized_copyILb1EE13__uninit_copyIPKfPfEET0_T_S6_S5_
	.section	.text._ZSt8_DestroyIPiEvT_S1_,"axG",@progbits,_ZSt8_DestroyIPiEvT_S1_,comdat
	.weak	_ZSt8_DestroyIPiEvT_S1_
	.type	_ZSt8_DestroyIPiEvT_S1_, @function
_ZSt8_DestroyIPiEvT_S1_:
.LFB3481:
	.cfi_startproc
	endbr64
	pushq	%rbp
	.cfi_def_cfa_offset 16
	.cfi_offset 6, -16
	movq	%rsp, %rbp
	.cfi_def_cfa_register 6
	subq	$16, %rsp
	movq	%rdi, -8(%rbp)
	movq	%rsi, -16(%rbp)
	call	_ZSt23__is_constant_evaluatedv
	testb	%al, %al
	je	.L207
	movq	-16(%rbp), %rdx
	movq	-8(%rbp), %rax
	movq	%rdx, %rsi
	movq	%rax, %rdi
	call	_ZNSt12_Destroy_auxILb0EE9__destroyIPiEEvT_S3_
	jmp	.L206
.L207:
	movq	-16(%rbp), %rdx
	movq	-8(%rbp), %rax
	movq	%rdx, %rsi
	movq	%rax, %rdi
	call	_ZNSt12_Destroy_auxILb1EE9__destroyIPiEEvT_S3_
.L206:
	leave
	.cfi_def_cfa 7, 8
	ret
	.cfi_endproc
.LFE3481:
	.size	_ZSt8_DestroyIPiEvT_S1_, .-_ZSt8_DestroyIPiEvT_S1_
	.section	.text._ZSt11__addressofIiEPT_RS0_,"axG",@progbits,_ZSt11__addressofIiEPT_RS0_,comdat
	.weak	_ZSt11__addressofIiEPT_RS0_
	.type	_ZSt11__addressofIiEPT_RS0_, @function
_ZSt11__addressofIiEPT_RS0_:
.LFB3483:
	.cfi_startproc
	endbr64
	pushq	%rbp
	.cfi_def_cfa_offset 16
	.cfi_offset 6, -16
	movq	%rsp, %rbp
	.cfi_def_cfa_register 6
	movq	%rdi, -8(%rbp)
	movq	-8(%rbp), %rax
	popq	%rbp
	.cfi_def_cfa 7, 8
	ret
	.cfi_endproc
.LFE3483:
	.size	_ZSt11__addressofIiEPT_RS0_, .-_ZSt11__addressofIiEPT_RS0_
	.section	.text._ZSt10_ConstructIiJRKiEEvPT_DpOT0_,"axG",@progbits,_ZSt10_ConstructIiJRKiEEvPT_DpOT0_,comdat
	.weak	_ZSt10_ConstructIiJRKiEEvPT_DpOT0_
	.type	_ZSt10_ConstructIiJRKiEEvPT_DpOT0_, @function
_ZSt10_ConstructIiJRKiEEvPT_DpOT0_:
.LFB3484:
	.cfi_startproc
	endbr64
	pushq	%rbp
	.cfi_def_cfa_offset 16
	.cfi_offset 6, -16
	movq	%rsp, %rbp
	.cfi_def_cfa_register 6
	pushq	%rbx
	subq	$24, %rsp
	.cfi_offset 3, -24
	movq	%rdi, -24(%rbp)
	movq	%rsi, -32(%rbp)
	call	_ZSt23__is_constant_evaluatedv
	testb	%al, %al
	je	.L212
	movq	-32(%rbp), %rax
	movq	%rax, %rdi
	call	_ZSt7forwardIRKiEOT_RNSt16remove_referenceIS2_E4typeE
	movq	%rax, %rdx
	movq	-24(%rbp), %rax
	movq	%rdx, %rsi
	movq	%rax, %rdi
	call	_ZSt12construct_atIiJRKiEEDTgsnwcvPvLi0E_T_pispcl7declvalIT0_EEEEPS3_DpOS4_
	jmp	.L211
.L212:
	movq	-24(%rbp), %rax
	movq	%rax, %rsi
	movl	$4, %edi
	call	_ZnwmPv
	movq	%rax, %rbx
	movq	-32(%rbp), %rax
	movq	%rax, %rdi
	call	_ZSt7forwardIRKiEOT_RNSt16remove_referenceIS2_E4typeE
	movl	(%rax), %eax
	movl	%eax, (%rbx)
.L211:
	movq	-8(%rbp), %rbx
	leave
	.cfi_def_cfa 7, 8
	ret
	.cfi_endproc
.LFE3484:
	.size	_ZSt10_ConstructIiJRKiEEvPT_DpOT0_, .-_ZSt10_ConstructIiJRKiEEvPT_DpOT0_
	.section	.text._ZNSt20__uninitialized_copyILb1EE13__uninit_copyIPKiPiEET0_T_S6_S5_,"axG",@progbits,_ZNSt20__uninitialized_copyILb1EE13__uninit_copyIPKiPiEET0_T_S6_S5_,comdat
	.weak	_ZNSt20__uninitialized_copyILb1EE13__uninit_copyIPKiPiEET0_T_S6_S5_
	.type	_ZNSt20__uninitialized_copyILb1EE13__uninit_copyIPKiPiEET0_T_S6_S5_, @function
_ZNSt20__uninitialized_copyILb1EE13__uninit_copyIPKiPiEET0_T_S6_S5_:
.LFB3485:
	.cfi_startproc
	endbr64
	pushq	%rbp
	.cfi_def_cfa_offset 16
	.cfi_offset 6, -16
	movq	%rsp, %rbp
	.cfi_def_cfa_register 6
	subq	$32, %rsp
	movq	%rdi, -8(%rbp)
	movq	%rsi, -16(%rbp)
	movq	%rdx, -24(%rbp)
	movq	-24(%rbp), %rdx
	movq	-16(%rbp), %rcx
	movq	-8(%rbp), %rax
	movq	%rcx, %rsi
	movq	%rax, %rdi
	call	_ZSt4copyIPKiPiET0_T_S4_S3_
	leave
	.cfi_def_cfa 7, 8
	ret
	.cfi_endproc
.LFE3485:
	.size	_ZNSt20__uninitialized_copyILb1EE13__uninit_copyIPKiPiEET0_T_S6_S5_, .-_ZNSt20__uninitialized_copyILb1EE13__uninit_copyIPKiPiEET0_T_S6_S5_
	.section	.text._ZNSt12_Destroy_auxILb0EE9__destroyIPfEEvT_S3_,"axG",@progbits,_ZNSt12_Destroy_auxILb0EE9__destroyIPfEEvT_S3_,comdat
	.weak	_ZNSt12_Destroy_auxILb0EE9__destroyIPfEEvT_S3_
	.type	_ZNSt12_Destroy_auxILb0EE9__destroyIPfEEvT_S3_, @function
_ZNSt12_Destroy_auxILb0EE9__destroyIPfEEvT_S3_:
.LFB3556:
	.cfi_startproc
	endbr64
	pushq	%rbp
	.cfi_def_cfa_offset 16
	.cfi_offset 6, -16
	movq	%rsp, %rbp
	.cfi_def_cfa_register 6
	subq	$16, %rsp
	movq	%rdi, -8(%rbp)
	movq	%rsi, -16(%rbp)
	jmp	.L217
.L218:
	movq	-8(%rbp), %rax
	movq	%rax, %rdi
	call	_ZSt11__addressofIfEPT_RS0_
	movq	%rax, %rdi
	call	_ZSt8_DestroyIfEvPT_
	addq	$4, -8(%rbp)
.L217:
	movq	-8(%rbp), %rax
	cmpq	-16(%rbp), %rax
	jne	.L218
	nop
	nop
	leave
	.cfi_def_cfa 7, 8
	ret
	.cfi_endproc
.LFE3556:
	.size	_ZNSt12_Destroy_auxILb0EE9__destroyIPfEEvT_S3_, .-_ZNSt12_Destroy_auxILb0EE9__destroyIPfEEvT_S3_
	.section	.text._ZNSt12_Destroy_auxILb1EE9__destroyIPfEEvT_S3_,"axG",@progbits,_ZNSt12_Destroy_auxILb1EE9__destroyIPfEEvT_S3_,comdat
	.weak	_ZNSt12_Destroy_auxILb1EE9__destroyIPfEEvT_S3_
	.type	_ZNSt12_Destroy_auxILb1EE9__destroyIPfEEvT_S3_, @function
_ZNSt12_Destroy_auxILb1EE9__destroyIPfEEvT_S3_:
.LFB3557:
	.cfi_startproc
	endbr64
	pushq	%rbp
	.cfi_def_cfa_offset 16
	.cfi_offset 6, -16
	movq	%rsp, %rbp
	.cfi_def_cfa_register 6
	movq	%rdi, -8(%rbp)
	movq	%rsi, -16(%rbp)
	nop
	popq	%rbp
	.cfi_def_cfa 7, 8
	ret
	.cfi_endproc
.LFE3557:
	.size	_ZNSt12_Destroy_auxILb1EE9__destroyIPfEEvT_S3_, .-_ZNSt12_Destroy_auxILb1EE9__destroyIPfEEvT_S3_
	.section	.text._ZSt7forwardIRKfEOT_RNSt16remove_referenceIS2_E4typeE,"axG",@progbits,_ZSt7forwardIRKfEOT_RNSt16remove_referenceIS2_E4typeE,comdat
	.weak	_ZSt7forwardIRKfEOT_RNSt16remove_referenceIS2_E4typeE
	.type	_ZSt7forwardIRKfEOT_RNSt16remove_referenceIS2_E4typeE, @function
_ZSt7forwardIRKfEOT_RNSt16remove_referenceIS2_E4typeE:
.LFB3559:
	.cfi_startproc
	endbr64
	pushq	%rbp
	.cfi_def_cfa_offset 16
	.cfi_offset 6, -16
	movq	%rsp, %rbp
	.cfi_def_cfa_register 6
	movq	%rdi, -8(%rbp)
	movq	-8(%rbp), %rax
	popq	%rbp
	.cfi_def_cfa 7, 8
	ret
	.cfi_endproc
.LFE3559:
	.size	_ZSt7forwardIRKfEOT_RNSt16remove_referenceIS2_E4typeE, .-_ZSt7forwardIRKfEOT_RNSt16remove_referenceIS2_E4typeE
	.section	.text._ZSt12construct_atIfJRKfEEDTgsnwcvPvLi0E_T_pispcl7declvalIT0_EEEEPS3_DpOS4_,"axG",@progbits,_ZSt12construct_atIfJRKfEEDTgsnwcvPvLi0E_T_pispcl7declvalIT0_EEEEPS3_DpOS4_,comdat
	.weak	_ZSt12construct_atIfJRKfEEDTgsnwcvPvLi0E_T_pispcl7declvalIT0_EEEEPS3_DpOS4_
	.type	_ZSt12construct_atIfJRKfEEDTgsnwcvPvLi0E_T_pispcl7declvalIT0_EEEEPS3_DpOS4_, @function
_ZSt12construct_atIfJRKfEEDTgsnwcvPvLi0E_T_pispcl7declvalIT0_EEEEPS3_DpOS4_:
.LFB3560:
	.cfi_startproc
	endbr64
	pushq	%rbp
	.cfi_def_cfa_offset 16
	.cfi_offset 6, -16
	movq	%rsp, %rbp
	.cfi_def_cfa_register 6
	pushq	%rbx
	subq	$24, %rsp
	.cfi_offset 3, -24
	movq	%rdi, -24(%rbp)
	movq	%rsi, -32(%rbp)
	movq	-24(%rbp), %rax
	movq	%rax, %rsi
	movl	$4, %edi
	call	_ZnwmPv
	movq	%rax, %rbx
	movq	-32(%rbp), %rax
	movq	%rax, %rdi
	call	_ZSt7forwardIRKfEOT_RNSt16remove_referenceIS2_E4typeE
	movss	(%rax), %xmm0
	movss	%xmm0, (%rbx)
	movq	%rbx, %rax
	movq	-8(%rbp), %rbx
	leave
	.cfi_def_cfa 7, 8
	ret
	.cfi_endproc
.LFE3560:
	.size	_ZSt12construct_atIfJRKfEEDTgsnwcvPvLi0E_T_pispcl7declvalIT0_EEEEPS3_DpOS4_, .-_ZSt12construct_atIfJRKfEEDTgsnwcvPvLi0E_T_pispcl7declvalIT0_EEEEPS3_DpOS4_
	.section	.text._ZSt4copyIPKfPfET0_T_S4_S3_,"axG",@progbits,_ZSt4copyIPKfPfET0_T_S4_S3_,comdat
	.weak	_ZSt4copyIPKfPfET0_T_S4_S3_
	.type	_ZSt4copyIPKfPfET0_T_S4_S3_, @function
_ZSt4copyIPKfPfET0_T_S4_S3_:
.LFB3561:
	.cfi_startproc
	endbr64
	pushq	%rbp
	.cfi_def_cfa_offset 16
	.cfi_offset 6, -16
	movq	%rsp, %rbp
	.cfi_def_cfa_register 6
	pushq	%rbx
	subq	$40, %rsp
	.cfi_offset 3, -24
	movq	%rdi, -24(%rbp)
	movq	%rsi, -32(%rbp)
	movq	%rdx, -40(%rbp)
	movq	-32(%rbp), %rax
	movq	%rax, %rdi
	call	_ZSt12__miter_baseIPKfET_S2_
	movq	%rax, %rbx
	movq	-24(%rbp), %rax
	movq	%rax, %rdi
	call	_ZSt12__miter_baseIPKfET_S2_
	movq	%rax, %rcx
	movq	-40(%rbp), %rax
	movq	%rax, %rdx
	movq	%rbx, %rsi
	movq	%rcx, %rdi
	call	_ZSt13__copy_move_aILb0EPKfPfET1_T0_S4_S3_
	movq	-8(%rbp), %rbx
	leave
	.cfi_def_cfa 7, 8
	ret
	.cfi_endproc
.LFE3561:
	.size	_ZSt4copyIPKfPfET0_T_S4_S3_, .-_ZSt4copyIPKfPfET0_T_S4_S3_
	.section	.text._ZNSt12_Destroy_auxILb0EE9__destroyIPiEEvT_S3_,"axG",@progbits,_ZNSt12_Destroy_auxILb0EE9__destroyIPiEEvT_S3_,comdat
	.weak	_ZNSt12_Destroy_auxILb0EE9__destroyIPiEEvT_S3_
	.type	_ZNSt12_Destroy_auxILb0EE9__destroyIPiEEvT_S3_, @function
_ZNSt12_Destroy_auxILb0EE9__destroyIPiEEvT_S3_:
.LFB3562:
	.cfi_startproc
	endbr64
	pushq	%rbp
	.cfi_def_cfa_offset 16
	.cfi_offset 6, -16
	movq	%rsp, %rbp
	.cfi_def_cfa_register 6
	subq	$16, %rsp
	movq	%rdi, -8(%rbp)
	movq	%rsi, -16(%rbp)
	jmp	.L227
.L228:
	movq	-8(%rbp), %rax
	movq	%rax, %rdi
	call	_ZSt11__addressofIiEPT_RS0_
	movq	%rax, %rdi
	call	_ZSt8_DestroyIiEvPT_
	addq	$4, -8(%rbp)
.L227:
	movq	-8(%rbp), %rax
	cmpq	-16(%rbp), %rax
	jne	.L228
	nop
	nop
	leave
	.cfi_def_cfa 7, 8
	ret
	.cfi_endproc
.LFE3562:
	.size	_ZNSt12_Destroy_auxILb0EE9__destroyIPiEEvT_S3_, .-_ZNSt12_Destroy_auxILb0EE9__destroyIPiEEvT_S3_
	.section	.text._ZNSt12_Destroy_auxILb1EE9__destroyIPiEEvT_S3_,"axG",@progbits,_ZNSt12_Destroy_auxILb1EE9__destroyIPiEEvT_S3_,comdat
	.weak	_ZNSt12_Destroy_auxILb1EE9__destroyIPiEEvT_S3_
	.type	_ZNSt12_Destroy_auxILb1EE9__destroyIPiEEvT_S3_, @function
_ZNSt12_Destroy_auxILb1EE9__destroyIPiEEvT_S3_:
.LFB3563:
	.cfi_startproc
	endbr64
	pushq	%rbp
	.cfi_def_cfa_offset 16
	.cfi_offset 6, -16
	movq	%rsp, %rbp
	.cfi_def_cfa_register 6
	movq	%rdi, -8(%rbp)
	movq	%rsi, -16(%rbp)
	nop
	popq	%rbp
	.cfi_def_cfa 7, 8
	ret
	.cfi_endproc
.LFE3563:
	.size	_ZNSt12_Destroy_auxILb1EE9__destroyIPiEEvT_S3_, .-_ZNSt12_Destroy_auxILb1EE9__destroyIPiEEvT_S3_
	.section	.text._ZSt7forwardIRKiEOT_RNSt16remove_referenceIS2_E4typeE,"axG",@progbits,_ZSt7forwardIRKiEOT_RNSt16remove_referenceIS2_E4typeE,comdat
	.weak	_ZSt7forwardIRKiEOT_RNSt16remove_referenceIS2_E4typeE
	.type	_ZSt7forwardIRKiEOT_RNSt16remove_referenceIS2_E4typeE, @function
_ZSt7forwardIRKiEOT_RNSt16remove_referenceIS2_E4typeE:
.LFB3565:
	.cfi_startproc
	endbr64
	pushq	%rbp
	.cfi_def_cfa_offset 16
	.cfi_offset 6, -16
	movq	%rsp, %rbp
	.cfi_def_cfa_register 6
	movq	%rdi, -8(%rbp)
	movq	-8(%rbp), %rax
	popq	%rbp
	.cfi_def_cfa 7, 8
	ret
	.cfi_endproc
.LFE3565:
	.size	_ZSt7forwardIRKiEOT_RNSt16remove_referenceIS2_E4typeE, .-_ZSt7forwardIRKiEOT_RNSt16remove_referenceIS2_E4typeE
	.section	.text._ZSt12construct_atIiJRKiEEDTgsnwcvPvLi0E_T_pispcl7declvalIT0_EEEEPS3_DpOS4_,"axG",@progbits,_ZSt12construct_atIiJRKiEEDTgsnwcvPvLi0E_T_pispcl7declvalIT0_EEEEPS3_DpOS4_,comdat
	.weak	_ZSt12construct_atIiJRKiEEDTgsnwcvPvLi0E_T_pispcl7declvalIT0_EEEEPS3_DpOS4_
	.type	_ZSt12construct_atIiJRKiEEDTgsnwcvPvLi0E_T_pispcl7declvalIT0_EEEEPS3_DpOS4_, @function
_ZSt12construct_atIiJRKiEEDTgsnwcvPvLi0E_T_pispcl7declvalIT0_EEEEPS3_DpOS4_:
.LFB3566:
	.cfi_startproc
	endbr64
	pushq	%rbp
	.cfi_def_cfa_offset 16
	.cfi_offset 6, -16
	movq	%rsp, %rbp
	.cfi_def_cfa_register 6
	pushq	%rbx
	subq	$24, %rsp
	.cfi_offset 3, -24
	movq	%rdi, -24(%rbp)
	movq	%rsi, -32(%rbp)
	movq	-24(%rbp), %rax
	movq	%rax, %rsi
	movl	$4, %edi
	call	_ZnwmPv
	movq	%rax, %rbx
	movq	-32(%rbp), %rax
	movq	%rax, %rdi
	call	_ZSt7forwardIRKiEOT_RNSt16remove_referenceIS2_E4typeE
	movl	(%rax), %eax
	movl	%eax, (%rbx)
	movq	%rbx, %rax
	movq	-8(%rbp), %rbx
	leave
	.cfi_def_cfa 7, 8
	ret
	.cfi_endproc
.LFE3566:
	.size	_ZSt12construct_atIiJRKiEEDTgsnwcvPvLi0E_T_pispcl7declvalIT0_EEEEPS3_DpOS4_, .-_ZSt12construct_atIiJRKiEEDTgsnwcvPvLi0E_T_pispcl7declvalIT0_EEEEPS3_DpOS4_
	.section	.text._ZSt4copyIPKiPiET0_T_S4_S3_,"axG",@progbits,_ZSt4copyIPKiPiET0_T_S4_S3_,comdat
	.weak	_ZSt4copyIPKiPiET0_T_S4_S3_
	.type	_ZSt4copyIPKiPiET0_T_S4_S3_, @function
_ZSt4copyIPKiPiET0_T_S4_S3_:
.LFB3567:
	.cfi_startproc
	endbr64
	pushq	%rbp
	.cfi_def_cfa_offset 16
	.cfi_offset 6, -16
	movq	%rsp, %rbp
	.cfi_def_cfa_register 6
	pushq	%rbx
	subq	$40, %rsp
	.cfi_offset 3, -24
	movq	%rdi, -24(%rbp)
	movq	%rsi, -32(%rbp)
	movq	%rdx, -40(%rbp)
	movq	-32(%rbp), %rax
	movq	%rax, %rdi
	call	_ZSt12__miter_baseIPKiET_S2_
	movq	%rax, %rbx
	movq	-24(%rbp), %rax
	movq	%rax, %rdi
	call	_ZSt12__miter_baseIPKiET_S2_
	movq	%rax, %rcx
	movq	-40(%rbp), %rax
	movq	%rax, %rdx
	movq	%rbx, %rsi
	movq	%rcx, %rdi
	call	_ZSt13__copy_move_aILb0EPKiPiET1_T0_S4_S3_
	movq	-8(%rbp), %rbx
	leave
	.cfi_def_cfa 7, 8
	ret
	.cfi_endproc
.LFE3567:
	.size	_ZSt4copyIPKiPiET0_T_S4_S3_, .-_ZSt4copyIPKiPiET0_T_S4_S3_
	.section	.text._ZSt8_DestroyIfEvPT_,"axG",@progbits,_ZSt8_DestroyIfEvPT_,comdat
	.weak	_ZSt8_DestroyIfEvPT_
	.type	_ZSt8_DestroyIfEvPT_, @function
_ZSt8_DestroyIfEvPT_:
.LFB3605:
	.cfi_startproc
	endbr64
	pushq	%rbp
	.cfi_def_cfa_offset 16
	.cfi_offset 6, -16
	movq	%rsp, %rbp
	.cfi_def_cfa_register 6
	subq	$16, %rsp
	movq	%rdi, -8(%rbp)
	movq	-8(%rbp), %rax
	movq	%rax, %rdi
	call	_ZSt10destroy_atIfEvPT_
	nop
	leave
	.cfi_def_cfa 7, 8
	ret
	.cfi_endproc
.LFE3605:
	.size	_ZSt8_DestroyIfEvPT_, .-_ZSt8_DestroyIfEvPT_
	.section	.text._ZNSt15__new_allocatorIfE10deallocateEPfm,"axG",@progbits,_ZNSt15__new_allocatorIfE10deallocateEPfm,comdat
	.align 2
	.weak	_ZNSt15__new_allocatorIfE10deallocateEPfm
	.type	_ZNSt15__new_allocatorIfE10deallocateEPfm, @function
_ZNSt15__new_allocatorIfE10deallocateEPfm:
.LFB3606:
	.cfi_startproc
	endbr64
	pushq	%rbp
	.cfi_def_cfa_offset 16
	.cfi_offset 6, -16
	movq	%rsp, %rbp
	.cfi_def_cfa_register 6
	subq	$32, %rsp
	movq	%rdi, -8(%rbp)
	movq	%rsi, -16(%rbp)
	movq	%rdx, -24(%rbp)
	movq	-24(%rbp), %rax
	leaq	0(,%rax,4), %rdx
	movq	-16(%rbp), %rax
	movq	%rdx, %rsi
	movq	%rax, %rdi
	call	_ZdlPvm@PLT
	leave
	.cfi_def_cfa 7, 8
	ret
	.cfi_endproc
.LFE3606:
	.size	_ZNSt15__new_allocatorIfE10deallocateEPfm, .-_ZNSt15__new_allocatorIfE10deallocateEPfm
	.section	.text._ZSt12__miter_baseIPKfET_S2_,"axG",@progbits,_ZSt12__miter_baseIPKfET_S2_,comdat
	.weak	_ZSt12__miter_baseIPKfET_S2_
	.type	_ZSt12__miter_baseIPKfET_S2_, @function
_ZSt12__miter_baseIPKfET_S2_:
.LFB3607:
	.cfi_startproc
	endbr64
	pushq	%rbp
	.cfi_def_cfa_offset 16
	.cfi_offset 6, -16
	movq	%rsp, %rbp
	.cfi_def_cfa_register 6
	movq	%rdi, -8(%rbp)
	movq	-8(%rbp), %rax
	popq	%rbp
	.cfi_def_cfa 7, 8
	ret
	.cfi_endproc
.LFE3607:
	.size	_ZSt12__miter_baseIPKfET_S2_, .-_ZSt12__miter_baseIPKfET_S2_
	.section	.text._ZSt13__copy_move_aILb0EPKfPfET1_T0_S4_S3_,"axG",@progbits,_ZSt13__copy_move_aILb0EPKfPfET1_T0_S4_S3_,comdat
	.weak	_ZSt13__copy_move_aILb0EPKfPfET1_T0_S4_S3_
	.type	_ZSt13__copy_move_aILb0EPKfPfET1_T0_S4_S3_, @function
_ZSt13__copy_move_aILb0EPKfPfET1_T0_S4_S3_:
.LFB3608:
	.cfi_startproc
	endbr64
	pushq	%rbp
	.cfi_def_cfa_offset 16
	.cfi_offset 6, -16
	movq	%rsp, %rbp
	.cfi_def_cfa_register 6
	pushq	%r12
	pushq	%rbx
	subq	$32, %rsp
	.cfi_offset 12, -24
	.cfi_offset 3, -32
	movq	%rdi, -24(%rbp)
	movq	%rsi, -32(%rbp)
	movq	%rdx, -40(%rbp)
	movq	-40(%rbp), %rax
	movq	%rax, %rdi
	call	_ZSt12__niter_baseIPfET_S1_
	movq	%rax, %r12
	movq	-32(%rbp), %rax
	movq	%rax, %rdi
	call	_ZSt12__niter_baseIPKfET_S2_
	movq	%rax, %rbx
	movq	-24(%rbp), %rax
	movq	%rax, %rdi
	call	_ZSt12__niter_baseIPKfET_S2_
	movq	%r12, %rdx
	movq	%rbx, %rsi
	movq	%rax, %rdi
	call	_ZSt14__copy_move_a1ILb0EPKfPfET1_T0_S4_S3_
	movq	%rax, %rdx
	leaq	-40(%rbp), %rax
	movq	%rdx, %rsi
	movq	%rax, %rdi
	call	_ZSt12__niter_wrapIPfET_RKS1_S1_
	addq	$32, %rsp
	popq	%rbx
	popq	%r12
	popq	%rbp
	.cfi_def_cfa 7, 8
	ret
	.cfi_endproc
.LFE3608:
	.size	_ZSt13__copy_move_aILb0EPKfPfET1_T0_S4_S3_, .-_ZSt13__copy_move_aILb0EPKfPfET1_T0_S4_S3_
	.section	.text._ZSt8_DestroyIiEvPT_,"axG",@progbits,_ZSt8_DestroyIiEvPT_,comdat
	.weak	_ZSt8_DestroyIiEvPT_
	.type	_ZSt8_DestroyIiEvPT_, @function
_ZSt8_DestroyIiEvPT_:
.LFB3611:
	.cfi_startproc
	endbr64
	pushq	%rbp
	.cfi_def_cfa_offset 16
	.cfi_offset 6, -16
	movq	%rsp, %rbp
	.cfi_def_cfa_register 6
	subq	$16, %rsp
	movq	%rdi, -8(%rbp)
	movq	-8(%rbp), %rax
	movq	%rax, %rdi
	call	_ZSt10destroy_atIiEvPT_
	nop
	leave
	.cfi_def_cfa 7, 8
	ret
	.cfi_endproc
.LFE3611:
	.size	_ZSt8_DestroyIiEvPT_, .-_ZSt8_DestroyIiEvPT_
	.section	.text._ZNSt15__new_allocatorIiE10deallocateEPim,"axG",@progbits,_ZNSt15__new_allocatorIiE10deallocateEPim,comdat
	.align 2
	.weak	_ZNSt15__new_allocatorIiE10deallocateEPim
	.type	_ZNSt15__new_allocatorIiE10deallocateEPim, @function
_ZNSt15__new_allocatorIiE10deallocateEPim:
.LFB3612:
	.cfi_startproc
	endbr64
	pushq	%rbp
	.cfi_def_cfa_offset 16
	.cfi_offset 6, -16
	movq	%rsp, %rbp
	.cfi_def_cfa_register 6
	subq	$32, %rsp
	movq	%rdi, -8(%rbp)
	movq	%rsi, -16(%rbp)
	movq	%rdx, -24(%rbp)
	movq	-24(%rbp), %rax
	leaq	0(,%rax,4), %rdx
	movq	-16(%rbp), %rax
	movq	%rdx, %rsi
	movq	%rax, %rdi
	call	_ZdlPvm@PLT
	leave
	.cfi_def_cfa 7, 8
	ret
	.cfi_endproc
.LFE3612:
	.size	_ZNSt15__new_allocatorIiE10deallocateEPim, .-_ZNSt15__new_allocatorIiE10deallocateEPim
	.section	.text._ZSt12__miter_baseIPKiET_S2_,"axG",@progbits,_ZSt12__miter_baseIPKiET_S2_,comdat
	.weak	_ZSt12__miter_baseIPKiET_S2_
	.type	_ZSt12__miter_baseIPKiET_S2_, @function
_ZSt12__miter_baseIPKiET_S2_:
.LFB3613:
	.cfi_startproc
	endbr64
	pushq	%rbp
	.cfi_def_cfa_offset 16
	.cfi_offset 6, -16
	movq	%rsp, %rbp
	.cfi_def_cfa_register 6
	movq	%rdi, -8(%rbp)
	movq	-8(%rbp), %rax
	popq	%rbp
	.cfi_def_cfa 7, 8
	ret
	.cfi_endproc
.LFE3613:
	.size	_ZSt12__miter_baseIPKiET_S2_, .-_ZSt12__miter_baseIPKiET_S2_
	.section	.text._ZSt13__copy_move_aILb0EPKiPiET1_T0_S4_S3_,"axG",@progbits,_ZSt13__copy_move_aILb0EPKiPiET1_T0_S4_S3_,comdat
	.weak	_ZSt13__copy_move_aILb0EPKiPiET1_T0_S4_S3_
	.type	_ZSt13__copy_move_aILb0EPKiPiET1_T0_S4_S3_, @function
_ZSt13__copy_move_aILb0EPKiPiET1_T0_S4_S3_:
.LFB3614:
	.cfi_startproc
	endbr64
	pushq	%rbp
	.cfi_def_cfa_offset 16
	.cfi_offset 6, -16
	movq	%rsp, %rbp
	.cfi_def_cfa_register 6
	pushq	%r12
	pushq	%rbx
	subq	$32, %rsp
	.cfi_offset 12, -24
	.cfi_offset 3, -32
	movq	%rdi, -24(%rbp)
	movq	%rsi, -32(%rbp)
	movq	%rdx, -40(%rbp)
	movq	-40(%rbp), %rax
	movq	%rax, %rdi
	call	_ZSt12__niter_baseIPiET_S1_
	movq	%rax, %r12
	movq	-32(%rbp), %rax
	movq	%rax, %rdi
	call	_ZSt12__niter_baseIPKiET_S2_
	movq	%rax, %rbx
	movq	-24(%rbp), %rax
	movq	%rax, %rdi
	call	_ZSt12__niter_baseIPKiET_S2_
	movq	%r12, %rdx
	movq	%rbx, %rsi
	movq	%rax, %rdi
	call	_ZSt14__copy_move_a1ILb0EPKiPiET1_T0_S4_S3_
	movq	%rax, %rdx
	leaq	-40(%rbp), %rax
	movq	%rdx, %rsi
	movq	%rax, %rdi
	call	_ZSt12__niter_wrapIPiET_RKS1_S1_
	addq	$32, %rsp
	popq	%rbx
	popq	%r12
	popq	%rbp
	.cfi_def_cfa 7, 8
	ret
	.cfi_endproc
.LFE3614:
	.size	_ZSt13__copy_move_aILb0EPKiPiET1_T0_S4_S3_, .-_ZSt13__copy_move_aILb0EPKiPiET1_T0_S4_S3_
	.section	.text._ZSt10destroy_atIfEvPT_,"axG",@progbits,_ZSt10destroy_atIfEvPT_,comdat
	.weak	_ZSt10destroy_atIfEvPT_
	.type	_ZSt10destroy_atIfEvPT_, @function
_ZSt10destroy_atIfEvPT_:
.LFB3633:
	.cfi_startproc
	endbr64
	pushq	%rbp
	.cfi_def_cfa_offset 16
	.cfi_offset 6, -16
	movq	%rsp, %rbp
	.cfi_def_cfa_register 6
	movq	%rdi, -8(%rbp)
	nop
	popq	%rbp
	.cfi_def_cfa 7, 8
	ret
	.cfi_endproc
.LFE3633:
	.size	_ZSt10destroy_atIfEvPT_, .-_ZSt10destroy_atIfEvPT_
	.section	.text._ZSt12__niter_baseIPKfET_S2_,"axG",@progbits,_ZSt12__niter_baseIPKfET_S2_,comdat
	.weak	_ZSt12__niter_baseIPKfET_S2_
	.type	_ZSt12__niter_baseIPKfET_S2_, @function
_ZSt12__niter_baseIPKfET_S2_:
.LFB3634:
	.cfi_startproc
	endbr64
	pushq	%rbp
	.cfi_def_cfa_offset 16
	.cfi_offset 6, -16
	movq	%rsp, %rbp
	.cfi_def_cfa_register 6
	movq	%rdi, -8(%rbp)
	movq	-8(%rbp), %rax
	popq	%rbp
	.cfi_def_cfa 7, 8
	ret
	.cfi_endproc
.LFE3634:
	.size	_ZSt12__niter_baseIPKfET_S2_, .-_ZSt12__niter_baseIPKfET_S2_
	.section	.text._ZSt12__niter_baseIPfET_S1_,"axG",@progbits,_ZSt12__niter_baseIPfET_S1_,comdat
	.weak	_ZSt12__niter_baseIPfET_S1_
	.type	_ZSt12__niter_baseIPfET_S1_, @function
_ZSt12__niter_baseIPfET_S1_:
.LFB3635:
	.cfi_startproc
	endbr64
	pushq	%rbp
	.cfi_def_cfa_offset 16
	.cfi_offset 6, -16
	movq	%rsp, %rbp
	.cfi_def_cfa_register 6
	movq	%rdi, -8(%rbp)
	movq	-8(%rbp), %rax
	popq	%rbp
	.cfi_def_cfa 7, 8
	ret
	.cfi_endproc
.LFE3635:
	.size	_ZSt12__niter_baseIPfET_S1_, .-_ZSt12__niter_baseIPfET_S1_
	.section	.text._ZSt14__copy_move_a1ILb0EPKfPfET1_T0_S4_S3_,"axG",@progbits,_ZSt14__copy_move_a1ILb0EPKfPfET1_T0_S4_S3_,comdat
	.weak	_ZSt14__copy_move_a1ILb0EPKfPfET1_T0_S4_S3_
	.type	_ZSt14__copy_move_a1ILb0EPKfPfET1_T0_S4_S3_, @function
_ZSt14__copy_move_a1ILb0EPKfPfET1_T0_S4_S3_:
.LFB3636:
	.cfi_startproc
	endbr64
	pushq	%rbp
	.cfi_def_cfa_offset 16
	.cfi_offset 6, -16
	movq	%rsp, %rbp
	.cfi_def_cfa_register 6
	subq	$32, %rsp
	movq	%rdi, -8(%rbp)
	movq	%rsi, -16(%rbp)
	movq	%rdx, -24(%rbp)
	movq	-24(%rbp), %rdx
	movq	-16(%rbp), %rcx
	movq	-8(%rbp), %rax
	movq	%rcx, %rsi
	movq	%rax, %rdi
	call	_ZSt14__copy_move_a2ILb0EPKfPfET1_T0_S4_S3_
	leave
	.cfi_def_cfa 7, 8
	ret
	.cfi_endproc
.LFE3636:
	.size	_ZSt14__copy_move_a1ILb0EPKfPfET1_T0_S4_S3_, .-_ZSt14__copy_move_a1ILb0EPKfPfET1_T0_S4_S3_
	.section	.text._ZSt12__niter_wrapIPfET_RKS1_S1_,"axG",@progbits,_ZSt12__niter_wrapIPfET_RKS1_S1_,comdat
	.weak	_ZSt12__niter_wrapIPfET_RKS1_S1_
	.type	_ZSt12__niter_wrapIPfET_RKS1_S1_, @function
_ZSt12__niter_wrapIPfET_RKS1_S1_:
.LFB3637:
	.cfi_startproc
	endbr64
	pushq	%rbp
	.cfi_def_cfa_offset 16
	.cfi_offset 6, -16
	movq	%rsp, %rbp
	.cfi_def_cfa_register 6
	movq	%rdi, -8(%rbp)
	movq	%rsi, -16(%rbp)
	movq	-16(%rbp), %rax
	popq	%rbp
	.cfi_def_cfa 7, 8
	ret
	.cfi_endproc
.LFE3637:
	.size	_ZSt12__niter_wrapIPfET_RKS1_S1_, .-_ZSt12__niter_wrapIPfET_RKS1_S1_
	.section	.text._ZSt10destroy_atIiEvPT_,"axG",@progbits,_ZSt10destroy_atIiEvPT_,comdat
	.weak	_ZSt10destroy_atIiEvPT_
	.type	_ZSt10destroy_atIiEvPT_, @function
_ZSt10destroy_atIiEvPT_:
.LFB3638:
	.cfi_startproc
	endbr64
	pushq	%rbp
	.cfi_def_cfa_offset 16
	.cfi_offset 6, -16
	movq	%rsp, %rbp
	.cfi_def_cfa_register 6
	movq	%rdi, -8(%rbp)
	nop
	popq	%rbp
	.cfi_def_cfa 7, 8
	ret
	.cfi_endproc
.LFE3638:
	.size	_ZSt10destroy_atIiEvPT_, .-_ZSt10destroy_atIiEvPT_
	.section	.text._ZSt12__niter_baseIPKiET_S2_,"axG",@progbits,_ZSt12__niter_baseIPKiET_S2_,comdat
	.weak	_ZSt12__niter_baseIPKiET_S2_
	.type	_ZSt12__niter_baseIPKiET_S2_, @function
_ZSt12__niter_baseIPKiET_S2_:
.LFB3639:
	.cfi_startproc
	endbr64
	pushq	%rbp
	.cfi_def_cfa_offset 16
	.cfi_offset 6, -16
	movq	%rsp, %rbp
	.cfi_def_cfa_register 6
	movq	%rdi, -8(%rbp)
	movq	-8(%rbp), %rax
	popq	%rbp
	.cfi_def_cfa 7, 8
	ret
	.cfi_endproc
.LFE3639:
	.size	_ZSt12__niter_baseIPKiET_S2_, .-_ZSt12__niter_baseIPKiET_S2_
	.section	.text._ZSt12__niter_baseIPiET_S1_,"axG",@progbits,_ZSt12__niter_baseIPiET_S1_,comdat
	.weak	_ZSt12__niter_baseIPiET_S1_
	.type	_ZSt12__niter_baseIPiET_S1_, @function
_ZSt12__niter_baseIPiET_S1_:
.LFB3640:
	.cfi_startproc
	endbr64
	pushq	%rbp
	.cfi_def_cfa_offset 16
	.cfi_offset 6, -16
	movq	%rsp, %rbp
	.cfi_def_cfa_register 6
	movq	%rdi, -8(%rbp)
	movq	-8(%rbp), %rax
	popq	%rbp
	.cfi_def_cfa 7, 8
	ret
	.cfi_endproc
.LFE3640:
	.size	_ZSt12__niter_baseIPiET_S1_, .-_ZSt12__niter_baseIPiET_S1_
	.section	.text._ZSt14__copy_move_a1ILb0EPKiPiET1_T0_S4_S3_,"axG",@progbits,_ZSt14__copy_move_a1ILb0EPKiPiET1_T0_S4_S3_,comdat
	.weak	_ZSt14__copy_move_a1ILb0EPKiPiET1_T0_S4_S3_
	.type	_ZSt14__copy_move_a1ILb0EPKiPiET1_T0_S4_S3_, @function
_ZSt14__copy_move_a1ILb0EPKiPiET1_T0_S4_S3_:
.LFB3641:
	.cfi_startproc
	endbr64
	pushq	%rbp
	.cfi_def_cfa_offset 16
	.cfi_offset 6, -16
	movq	%rsp, %rbp
	.cfi_def_cfa_register 6
	subq	$32, %rsp
	movq	%rdi, -8(%rbp)
	movq	%rsi, -16(%rbp)
	movq	%rdx, -24(%rbp)
	movq	-24(%rbp), %rdx
	movq	-16(%rbp), %rcx
	movq	-8(%rbp), %rax
	movq	%rcx, %rsi
	movq	%rax, %rdi
	call	_ZSt14__copy_move_a2ILb0EPKiPiET1_T0_S4_S3_
	leave
	.cfi_def_cfa 7, 8
	ret
	.cfi_endproc
.LFE3641:
	.size	_ZSt14__copy_move_a1ILb0EPKiPiET1_T0_S4_S3_, .-_ZSt14__copy_move_a1ILb0EPKiPiET1_T0_S4_S3_
	.section	.text._ZSt12__niter_wrapIPiET_RKS1_S1_,"axG",@progbits,_ZSt12__niter_wrapIPiET_RKS1_S1_,comdat
	.weak	_ZSt12__niter_wrapIPiET_RKS1_S1_
	.type	_ZSt12__niter_wrapIPiET_RKS1_S1_, @function
_ZSt12__niter_wrapIPiET_RKS1_S1_:
.LFB3642:
	.cfi_startproc
	endbr64
	pushq	%rbp
	.cfi_def_cfa_offset 16
	.cfi_offset 6, -16
	movq	%rsp, %rbp
	.cfi_def_cfa_register 6
	movq	%rdi, -8(%rbp)
	movq	%rsi, -16(%rbp)
	movq	-16(%rbp), %rax
	popq	%rbp
	.cfi_def_cfa 7, 8
	ret
	.cfi_endproc
.LFE3642:
	.size	_ZSt12__niter_wrapIPiET_RKS1_S1_, .-_ZSt12__niter_wrapIPiET_RKS1_S1_
	.section	.text._ZSt14__copy_move_a2ILb0EPKfPfET1_T0_S4_S3_,"axG",@progbits,_ZSt14__copy_move_a2ILb0EPKfPfET1_T0_S4_S3_,comdat
	.weak	_ZSt14__copy_move_a2ILb0EPKfPfET1_T0_S4_S3_
	.type	_ZSt14__copy_move_a2ILb0EPKfPfET1_T0_S4_S3_, @function
_ZSt14__copy_move_a2ILb0EPKfPfET1_T0_S4_S3_:
.LFB3652:
	.cfi_startproc
	endbr64
	pushq	%rbp
	.cfi_def_cfa_offset 16
	.cfi_offset 6, -16
	movq	%rsp, %rbp
	.cfi_def_cfa_register 6
	subq	$32, %rsp
	movq	%rdi, -8(%rbp)
	movq	%rsi, -16(%rbp)
	movq	%rdx, -24(%rbp)
	call	_ZSt21is_constant_evaluatedv
	testb	%al, %al
	je	.L269
	movq	-24(%rbp), %rdx
	movq	-16(%rbp), %rcx
	movq	-8(%rbp), %rax
	movq	%rcx, %rsi
	movq	%rax, %rdi
	call	_ZNSt11__copy_moveILb0ELb0ESt26random_access_iterator_tagE8__copy_mIPKfPfEET0_T_S7_S6_
	jmp	.L270
.L269:
	movq	-24(%rbp), %rdx
	movq	-16(%rbp), %rcx
	movq	-8(%rbp), %rax
	movq	%rcx, %rsi
	movq	%rax, %rdi
	call	_ZNSt11__copy_moveILb0ELb1ESt26random_access_iterator_tagE8__copy_mIKffEEPT0_PT_S7_S5_
	nop
.L270:
	leave
	.cfi_def_cfa 7, 8
	ret
	.cfi_endproc
.LFE3652:
	.size	_ZSt14__copy_move_a2ILb0EPKfPfET1_T0_S4_S3_, .-_ZSt14__copy_move_a2ILb0EPKfPfET1_T0_S4_S3_
	.section	.text._ZSt14__copy_move_a2ILb0EPKiPiET1_T0_S4_S3_,"axG",@progbits,_ZSt14__copy_move_a2ILb0EPKiPiET1_T0_S4_S3_,comdat
	.weak	_ZSt14__copy_move_a2ILb0EPKiPiET1_T0_S4_S3_
	.type	_ZSt14__copy_move_a2ILb0EPKiPiET1_T0_S4_S3_, @function
_ZSt14__copy_move_a2ILb0EPKiPiET1_T0_S4_S3_:
.LFB3653:
	.cfi_startproc
	endbr64
	pushq	%rbp
	.cfi_def_cfa_offset 16
	.cfi_offset 6, -16
	movq	%rsp, %rbp
	.cfi_def_cfa_register 6
	subq	$32, %rsp
	movq	%rdi, -8(%rbp)
	movq	%rsi, -16(%rbp)
	movq	%rdx, -24(%rbp)
	call	_ZSt21is_constant_evaluatedv
	testb	%al, %al
	je	.L272
	movq	-24(%rbp), %rdx
	movq	-16(%rbp), %rcx
	movq	-8(%rbp), %rax
	movq	%rcx, %rsi
	movq	%rax, %rdi
	call	_ZNSt11__copy_moveILb0ELb0ESt26random_access_iterator_tagE8__copy_mIPKiPiEET0_T_S7_S6_
	jmp	.L273
.L272:
	movq	-24(%rbp), %rdx
	movq	-16(%rbp), %rcx
	movq	-8(%rbp), %rax
	movq	%rcx, %rsi
	movq	%rax, %rdi
	call	_ZNSt11__copy_moveILb0ELb1ESt26random_access_iterator_tagE8__copy_mIKiiEEPT0_PT_S7_S5_
	nop
.L273:
	leave
	.cfi_def_cfa 7, 8
	ret
	.cfi_endproc
.LFE3653:
	.size	_ZSt14__copy_move_a2ILb0EPKiPiET1_T0_S4_S3_, .-_ZSt14__copy_move_a2ILb0EPKiPiET1_T0_S4_S3_
	.section	.text._ZNSt11__copy_moveILb0ELb0ESt26random_access_iterator_tagE8__copy_mIPKfPfEET0_T_S7_S6_,"axG",@progbits,_ZNSt11__copy_moveILb0ELb0ESt26random_access_iterator_tagE8__copy_mIPKfPfEET0_T_S7_S6_,comdat
	.weak	_ZNSt11__copy_moveILb0ELb0ESt26random_access_iterator_tagE8__copy_mIPKfPfEET0_T_S7_S6_
	.type	_ZNSt11__copy_moveILb0ELb0ESt26random_access_iterator_tagE8__copy_mIPKfPfEET0_T_S7_S6_, @function
_ZNSt11__copy_moveILb0ELb0ESt26random_access_iterator_tagE8__copy_mIPKfPfEET0_T_S7_S6_:
.LFB3659:
	.cfi_startproc
	endbr64
	pushq	%rbp
	.cfi_def_cfa_offset 16
	.cfi_offset 6, -16
	movq	%rsp, %rbp
	.cfi_def_cfa_register 6
	movq	%rdi, -24(%rbp)
	movq	%rsi, -32(%rbp)
	movq	%rdx, -40(%rbp)
	movq	-32(%rbp), %rax
	subq	-24(%rbp), %rax
	sarq	$2, %rax
	movq	%rax, -8(%rbp)
	jmp	.L275
.L276:
	movq	-24(%rbp), %rax
	movss	(%rax), %xmm0
	movq	-40(%rbp), %rax
	movss	%xmm0, (%rax)
	addq	$4, -24(%rbp)
	addq	$4, -40(%rbp)
	subq	$1, -8(%rbp)
.L275:
	cmpq	$0, -8(%rbp)
	jg	.L276
	movq	-40(%rbp), %rax
	popq	%rbp
	.cfi_def_cfa 7, 8
	ret
	.cfi_endproc
.LFE3659:
	.size	_ZNSt11__copy_moveILb0ELb0ESt26random_access_iterator_tagE8__copy_mIPKfPfEET0_T_S7_S6_, .-_ZNSt11__copy_moveILb0ELb0ESt26random_access_iterator_tagE8__copy_mIPKfPfEET0_T_S7_S6_
	.section	.text._ZNSt11__copy_moveILb0ELb1ESt26random_access_iterator_tagE8__copy_mIKffEEPT0_PT_S7_S5_,"axG",@progbits,_ZNSt11__copy_moveILb0ELb1ESt26random_access_iterator_tagE8__copy_mIKffEEPT0_PT_S7_S5_,comdat
	.weak	_ZNSt11__copy_moveILb0ELb1ESt26random_access_iterator_tagE8__copy_mIKffEEPT0_PT_S7_S5_
	.type	_ZNSt11__copy_moveILb0ELb1ESt26random_access_iterator_tagE8__copy_mIKffEEPT0_PT_S7_S5_, @function
_ZNSt11__copy_moveILb0ELb1ESt26random_access_iterator_tagE8__copy_mIKffEEPT0_PT_S7_S5_:
.LFB3660:
	.cfi_startproc
	endbr64
	pushq	%rbp
	.cfi_def_cfa_offset 16
	.cfi_offset 6, -16
	movq	%rsp, %rbp
	.cfi_def_cfa_register 6
	subq	$48, %rsp
	movq	%rdi, -24(%rbp)
	movq	%rsi, -32(%rbp)
	movq	%rdx, -40(%rbp)
	movq	-32(%rbp), %rax
	subq	-24(%rbp), %rax
	sarq	$2, %rax
	movq	%rax, -8(%rbp)
	cmpq	$1, -8(%rbp)
	setg	%al
	movzbl	%al, %eax
	testq	%rax, %rax
	je	.L279
	movq	-8(%rbp), %rax
	leaq	0(,%rax,4), %rdx
	movq	-24(%rbp), %rcx
	movq	-40(%rbp), %rax
	movq	%rcx, %rsi
	movq	%rax, %rdi
	call	memmove@PLT
	jmp	.L280
.L279:
	cmpq	$1, -8(%rbp)
	jne	.L280
	movq	-24(%rbp), %rdx
	movq	-40(%rbp), %rax
	movq	%rdx, %rsi
	movq	%rax, %rdi
	call	_ZNSt11__copy_moveILb0ELb0ESt26random_access_iterator_tagE12__assign_oneIfKfEEvPT_PT0_
.L280:
	movq	-8(%rbp), %rax
	leaq	0(,%rax,4), %rdx
	movq	-40(%rbp), %rax
	addq	%rdx, %rax
	leave
	.cfi_def_cfa 7, 8
	ret
	.cfi_endproc
.LFE3660:
	.size	_ZNSt11__copy_moveILb0ELb1ESt26random_access_iterator_tagE8__copy_mIKffEEPT0_PT_S7_S5_, .-_ZNSt11__copy_moveILb0ELb1ESt26random_access_iterator_tagE8__copy_mIKffEEPT0_PT_S7_S5_
	.section	.text._ZNSt11__copy_moveILb0ELb0ESt26random_access_iterator_tagE8__copy_mIPKiPiEET0_T_S7_S6_,"axG",@progbits,_ZNSt11__copy_moveILb0ELb0ESt26random_access_iterator_tagE8__copy_mIPKiPiEET0_T_S7_S6_,comdat
	.weak	_ZNSt11__copy_moveILb0ELb0ESt26random_access_iterator_tagE8__copy_mIPKiPiEET0_T_S7_S6_
	.type	_ZNSt11__copy_moveILb0ELb0ESt26random_access_iterator_tagE8__copy_mIPKiPiEET0_T_S7_S6_, @function
_ZNSt11__copy_moveILb0ELb0ESt26random_access_iterator_tagE8__copy_mIPKiPiEET0_T_S7_S6_:
.LFB3661:
	.cfi_startproc
	endbr64
	pushq	%rbp
	.cfi_def_cfa_offset 16
	.cfi_offset 6, -16
	movq	%rsp, %rbp
	.cfi_def_cfa_register 6
	movq	%rdi, -24(%rbp)
	movq	%rsi, -32(%rbp)
	movq	%rdx, -40(%rbp)
	movq	-32(%rbp), %rax
	subq	-24(%rbp), %rax
	sarq	$2, %rax
	movq	%rax, -8(%rbp)
	jmp	.L283
.L284:
	movq	-24(%rbp), %rax
	movl	(%rax), %edx
	movq	-40(%rbp), %rax
	movl	%edx, (%rax)
	addq	$4, -24(%rbp)
	addq	$4, -40(%rbp)
	subq	$1, -8(%rbp)
.L283:
	cmpq	$0, -8(%rbp)
	jg	.L284
	movq	-40(%rbp), %rax
	popq	%rbp
	.cfi_def_cfa 7, 8
	ret
	.cfi_endproc
.LFE3661:
	.size	_ZNSt11__copy_moveILb0ELb0ESt26random_access_iterator_tagE8__copy_mIPKiPiEET0_T_S7_S6_, .-_ZNSt11__copy_moveILb0ELb0ESt26random_access_iterator_tagE8__copy_mIPKiPiEET0_T_S7_S6_
	.section	.text._ZNSt11__copy_moveILb0ELb1ESt26random_access_iterator_tagE8__copy_mIKiiEEPT0_PT_S7_S5_,"axG",@progbits,_ZNSt11__copy_moveILb0ELb1ESt26random_access_iterator_tagE8__copy_mIKiiEEPT0_PT_S7_S5_,comdat
	.weak	_ZNSt11__copy_moveILb0ELb1ESt26random_access_iterator_tagE8__copy_mIKiiEEPT0_PT_S7_S5_
	.type	_ZNSt11__copy_moveILb0ELb1ESt26random_access_iterator_tagE8__copy_mIKiiEEPT0_PT_S7_S5_, @function
_ZNSt11__copy_moveILb0ELb1ESt26random_access_iterator_tagE8__copy_mIKiiEEPT0_PT_S7_S5_:
.LFB3662:
	.cfi_startproc
	endbr64
	pushq	%rbp
	.cfi_def_cfa_offset 16
	.cfi_offset 6, -16
	movq	%rsp, %rbp
	.cfi_def_cfa_register 6
	subq	$48, %rsp
	movq	%rdi, -24(%rbp)
	movq	%rsi, -32(%rbp)
	movq	%rdx, -40(%rbp)
	movq	-32(%rbp), %rax
	subq	-24(%rbp), %rax
	sarq	$2, %rax
	movq	%rax, -8(%rbp)
	cmpq	$1, -8(%rbp)
	setg	%al
	movzbl	%al, %eax
	testq	%rax, %rax
	je	.L287
	movq	-8(%rbp), %rax
	leaq	0(,%rax,4), %rdx
	movq	-24(%rbp), %rcx
	movq	-40(%rbp), %rax
	movq	%rcx, %rsi
	movq	%rax, %rdi
	call	memmove@PLT
	jmp	.L288
.L287:
	cmpq	$1, -8(%rbp)
	jne	.L288
	movq	-24(%rbp), %rdx
	movq	-40(%rbp), %rax
	movq	%rdx, %rsi
	movq	%rax, %rdi
	call	_ZNSt11__copy_moveILb0ELb0ESt26random_access_iterator_tagE12__assign_oneIiKiEEvPT_PT0_
.L288:
	movq	-8(%rbp), %rax
	leaq	0(,%rax,4), %rdx
	movq	-40(%rbp), %rax
	addq	%rdx, %rax
	leave
	.cfi_def_cfa 7, 8
	ret
	.cfi_endproc
.LFE3662:
	.size	_ZNSt11__copy_moveILb0ELb1ESt26random_access_iterator_tagE8__copy_mIKiiEEPT0_PT_S7_S5_, .-_ZNSt11__copy_moveILb0ELb1ESt26random_access_iterator_tagE8__copy_mIKiiEEPT0_PT_S7_S5_
	.section	.text._ZNSt11__copy_moveILb0ELb0ESt26random_access_iterator_tagE12__assign_oneIfKfEEvPT_PT0_,"axG",@progbits,_ZNSt11__copy_moveILb0ELb0ESt26random_access_iterator_tagE12__assign_oneIfKfEEvPT_PT0_,comdat
	.weak	_ZNSt11__copy_moveILb0ELb0ESt26random_access_iterator_tagE12__assign_oneIfKfEEvPT_PT0_
	.type	_ZNSt11__copy_moveILb0ELb0ESt26random_access_iterator_tagE12__assign_oneIfKfEEvPT_PT0_, @function
_ZNSt11__copy_moveILb0ELb0ESt26random_access_iterator_tagE12__assign_oneIfKfEEvPT_PT0_:
.LFB3663:
	.cfi_startproc
	endbr64
	pushq	%rbp
	.cfi_def_cfa_offset 16
	.cfi_offset 6, -16
	movq	%rsp, %rbp
	.cfi_def_cfa_register 6
	movq	%rdi, -8(%rbp)
	movq	%rsi, -16(%rbp)
	movq	-16(%rbp), %rax
	movss	(%rax), %xmm0
	movq	-8(%rbp), %rax
	movss	%xmm0, (%rax)
	nop
	popq	%rbp
	.cfi_def_cfa 7, 8
	ret
	.cfi_endproc
.LFE3663:
	.size	_ZNSt11__copy_moveILb0ELb0ESt26random_access_iterator_tagE12__assign_oneIfKfEEvPT_PT0_, .-_ZNSt11__copy_moveILb0ELb0ESt26random_access_iterator_tagE12__assign_oneIfKfEEvPT_PT0_
	.section	.text._ZNSt11__copy_moveILb0ELb0ESt26random_access_iterator_tagE12__assign_oneIiKiEEvPT_PT0_,"axG",@progbits,_ZNSt11__copy_moveILb0ELb0ESt26random_access_iterator_tagE12__assign_oneIiKiEEvPT_PT0_,comdat
	.weak	_ZNSt11__copy_moveILb0ELb0ESt26random_access_iterator_tagE12__assign_oneIiKiEEvPT_PT0_
	.type	_ZNSt11__copy_moveILb0ELb0ESt26random_access_iterator_tagE12__assign_oneIiKiEEvPT_PT0_, @function
_ZNSt11__copy_moveILb0ELb0ESt26random_access_iterator_tagE12__assign_oneIiKiEEvPT_PT0_:
.LFB3664:
	.cfi_startproc
	endbr64
	pushq	%rbp
	.cfi_def_cfa_offset 16
	.cfi_offset 6, -16
	movq	%rsp, %rbp
	.cfi_def_cfa_register 6
	movq	%rdi, -8(%rbp)
	movq	%rsi, -16(%rbp)
	movq	-16(%rbp), %rax
	movl	(%rax), %edx
	movq	-8(%rbp), %rax
	movl	%edx, (%rax)
	nop
	popq	%rbp
	.cfi_def_cfa 7, 8
	ret
	.cfi_endproc
.LFE3664:
	.size	_ZNSt11__copy_moveILb0ELb0ESt26random_access_iterator_tagE12__assign_oneIiKiEEvPT_PT0_, .-_ZNSt11__copy_moveILb0ELb0ESt26random_access_iterator_tagE12__assign_oneIiKiEEvPT_PT0_
	.section	.rodata
	.type	_ZNSt8__detail14__destructibleISt13_Bit_iteratorEE, @object
	.size	_ZNSt8__detail14__destructibleISt13_Bit_iteratorEE, 1
_ZNSt8__detail14__destructibleISt13_Bit_iteratorEE:
	.byte	1
	.type	_ZNSt8__detail19__destructible_implISt13_Bit_iteratorEE, @object
	.size	_ZNSt8__detail19__destructible_implISt13_Bit_iteratorEE, 1
_ZNSt8__detail19__destructible_implISt13_Bit_iteratorEE:
	.byte	1
	.type	_ZNSt8__detail14__destructibleISt19_Bit_const_iteratorEE, @object
	.size	_ZNSt8__detail14__destructibleISt19_Bit_const_iteratorEE, 1
_ZNSt8__detail14__destructibleISt19_Bit_const_iteratorEE:
	.byte	1
	.type	_ZNSt8__detail19__destructible_implISt19_Bit_const_iteratorEE, @object
	.size	_ZNSt8__detail19__destructible_implISt19_Bit_const_iteratorEE, 1
_ZNSt8__detail19__destructible_implISt19_Bit_const_iteratorEE:
	.byte	1
	.type	_ZNSt8__detail30__integer_to_chars_is_unsignedIjEE, @object
	.size	_ZNSt8__detail30__integer_to_chars_is_unsignedIjEE, 1
_ZNSt8__detail30__integer_to_chars_is_unsignedIjEE:
	.byte	1
	.type	_ZNSt8__detail30__integer_to_chars_is_unsignedImEE, @object
	.size	_ZNSt8__detail30__integer_to_chars_is_unsignedImEE, 1
_ZNSt8__detail30__integer_to_chars_is_unsignedImEE:
	.byte	1
	.type	_ZNSt8__detail30__integer_to_chars_is_unsignedIyEE, @object
	.size	_ZNSt8__detail30__integer_to_chars_is_unsignedIyEE, 1
_ZNSt8__detail30__integer_to_chars_is_unsignedIyEE:
	.byte	1
	.align 4
.LC2:
	.long	1065353216
	.align 4
.LC3:
	.long	1073741824
	.align 4
.LC4:
	.long	1077936128
	.align 4
.LC27:
	.long	1084227584
	.hidden	DW.ref.__gxx_personality_v0
	.weak	DW.ref.__gxx_personality_v0
	.section	.data.rel.local.DW.ref.__gxx_personality_v0,"awG",@progbits,DW.ref.__gxx_personality_v0,comdat
	.align 8
	.type	DW.ref.__gxx_personality_v0, @object
	.size	DW.ref.__gxx_personality_v0, 8
DW.ref.__gxx_personality_v0:
	.quad	__gxx_personality_v0
	.ident	"GCC: (Ubuntu 13.3.0-6ubuntu2~24.04) 13.3.0"
	.section	.note.GNU-stack,"",@progbits
	.section	.note.gnu.property,"a"
	.align 8
	.long	1f - 0f
	.long	4f - 1f
	.long	5
0:
	.string	"GNU"
1:
	.align 8
	.long	0xc0000002
	.long	3f - 2f
2:
	.long	0x3
3:
	.align 8
4:
